
CSCProject3.elf:     file format elf32-avr

Sections:
Idx Name          Size      VMA       LMA       File off  Algn
  0 .data         00000004  00800200  000011a8  0000123c  2**0
                  CONTENTS, ALLOC, LOAD, DATA
  1 .text         000011a8  00000000  00000000  00000094  2**1
                  CONTENTS, ALLOC, LOAD, READONLY, CODE
  2 .bss          00000117  00800204  00800204  00001240  2**0
                  ALLOC
  3 .comment      00000030  00000000  00000000  00001240  2**0
                  CONTENTS, READONLY
  4 .note.gnu.avr.deviceinfo 00000040  00000000  00000000  00001270  2**2
                  CONTENTS, READONLY
  5 .debug_info   00000bbc  00000000  00000000  000012b0  2**0
                  CONTENTS, READONLY, DEBUGGING
  6 .debug_abbrev 00000b1a  00000000  00000000  00001e6c  2**0
                  CONTENTS, READONLY, DEBUGGING
  7 .debug_line   000001f9  00000000  00000000  00002986  2**0
                  CONTENTS, READONLY, DEBUGGING
  8 .debug_str    000003e6  00000000  00000000  00002b7f  2**0
                  CONTENTS, READONLY, DEBUGGING

Disassembly of section .text:

00000000 <__vectors>:
       0:	71 c0       	rjmp	.+226    	; 0xe4 <__ctors_end>
       2:	00 00       	nop
       4:	8f c0       	rjmp	.+286    	; 0x124 <__bad_interrupt>
       6:	00 00       	nop
       8:	8d c0       	rjmp	.+282    	; 0x124 <__bad_interrupt>
       a:	00 00       	nop
       c:	8b c0       	rjmp	.+278    	; 0x124 <__bad_interrupt>
       e:	00 00       	nop
      10:	89 c0       	rjmp	.+274    	; 0x124 <__bad_interrupt>
      12:	00 00       	nop
      14:	87 c0       	rjmp	.+270    	; 0x124 <__bad_interrupt>
      16:	00 00       	nop
      18:	85 c0       	rjmp	.+266    	; 0x124 <__bad_interrupt>
      1a:	00 00       	nop
      1c:	83 c0       	rjmp	.+262    	; 0x124 <__bad_interrupt>
      1e:	00 00       	nop
      20:	81 c0       	rjmp	.+258    	; 0x124 <__bad_interrupt>
      22:	00 00       	nop
      24:	7f c0       	rjmp	.+254    	; 0x124 <__bad_interrupt>
      26:	00 00       	nop
      28:	7d c0       	rjmp	.+250    	; 0x124 <__bad_interrupt>
      2a:	00 00       	nop
      2c:	7b c0       	rjmp	.+246    	; 0x124 <__bad_interrupt>
      2e:	00 00       	nop
      30:	79 c0       	rjmp	.+242    	; 0x124 <__bad_interrupt>
      32:	00 00       	nop
      34:	77 c0       	rjmp	.+238    	; 0x124 <__bad_interrupt>
      36:	00 00       	nop
      38:	75 c0       	rjmp	.+234    	; 0x124 <__bad_interrupt>
      3a:	00 00       	nop
      3c:	73 c0       	rjmp	.+230    	; 0x124 <__bad_interrupt>
      3e:	00 00       	nop
      40:	71 c0       	rjmp	.+226    	; 0x124 <__bad_interrupt>
      42:	00 00       	nop
      44:	6f c0       	rjmp	.+222    	; 0x124 <__bad_interrupt>
      46:	00 00       	nop
      48:	6d c0       	rjmp	.+218    	; 0x124 <__bad_interrupt>
      4a:	00 00       	nop
      4c:	6b c0       	rjmp	.+214    	; 0x124 <__bad_interrupt>
      4e:	00 00       	nop
      50:	69 c0       	rjmp	.+210    	; 0x124 <__bad_interrupt>
      52:	00 00       	nop
      54:	67 c0       	rjmp	.+206    	; 0x124 <__bad_interrupt>
      56:	00 00       	nop
      58:	65 c0       	rjmp	.+202    	; 0x124 <__bad_interrupt>
      5a:	00 00       	nop
      5c:	63 c0       	rjmp	.+198    	; 0x124 <__bad_interrupt>
      5e:	00 00       	nop
      60:	61 c0       	rjmp	.+194    	; 0x124 <__bad_interrupt>
      62:	00 00       	nop
      64:	5f c0       	rjmp	.+190    	; 0x124 <__bad_interrupt>
      66:	00 00       	nop
      68:	5d c0       	rjmp	.+186    	; 0x124 <__bad_interrupt>
      6a:	00 00       	nop
      6c:	5b c0       	rjmp	.+182    	; 0x124 <__bad_interrupt>
      6e:	00 00       	nop
      70:	59 c0       	rjmp	.+178    	; 0x124 <__bad_interrupt>
      72:	00 00       	nop
      74:	57 c0       	rjmp	.+174    	; 0x124 <__bad_interrupt>
      76:	00 00       	nop
      78:	55 c0       	rjmp	.+170    	; 0x124 <__bad_interrupt>
      7a:	00 00       	nop
      7c:	53 c0       	rjmp	.+166    	; 0x124 <__bad_interrupt>
      7e:	00 00       	nop
      80:	51 c0       	rjmp	.+162    	; 0x124 <__bad_interrupt>
      82:	00 00       	nop
      84:	4f c0       	rjmp	.+158    	; 0x124 <__bad_interrupt>
      86:	00 00       	nop
      88:	4d c0       	rjmp	.+154    	; 0x124 <__bad_interrupt>
      8a:	00 00       	nop
      8c:	4b c0       	rjmp	.+150    	; 0x124 <__bad_interrupt>
      8e:	00 00       	nop
      90:	c8 c6       	rjmp	.+3472   	; 0xe22 <__vector_36>
      92:	00 00       	nop
      94:	47 c0       	rjmp	.+142    	; 0x124 <__bad_interrupt>
      96:	00 00       	nop
      98:	45 c0       	rjmp	.+138    	; 0x124 <__bad_interrupt>
      9a:	00 00       	nop
      9c:	43 c0       	rjmp	.+134    	; 0x124 <__bad_interrupt>
      9e:	00 00       	nop
      a0:	41 c0       	rjmp	.+130    	; 0x124 <__bad_interrupt>
      a2:	00 00       	nop
      a4:	3f c0       	rjmp	.+126    	; 0x124 <__bad_interrupt>
      a6:	00 00       	nop
      a8:	3d c0       	rjmp	.+122    	; 0x124 <__bad_interrupt>
      aa:	00 00       	nop
      ac:	3b c0       	rjmp	.+118    	; 0x124 <__bad_interrupt>
      ae:	00 00       	nop
      b0:	39 c0       	rjmp	.+114    	; 0x124 <__bad_interrupt>
      b2:	00 00       	nop
      b4:	37 c0       	rjmp	.+110    	; 0x124 <__bad_interrupt>
      b6:	00 00       	nop
      b8:	35 c0       	rjmp	.+106    	; 0x124 <__bad_interrupt>
      ba:	00 00       	nop
      bc:	33 c0       	rjmp	.+102    	; 0x124 <__bad_interrupt>
      be:	00 00       	nop
      c0:	31 c0       	rjmp	.+98     	; 0x124 <__bad_interrupt>
      c2:	00 00       	nop
      c4:	2f c0       	rjmp	.+94     	; 0x124 <__bad_interrupt>
      c6:	00 00       	nop
      c8:	2d c0       	rjmp	.+90     	; 0x124 <__bad_interrupt>
      ca:	00 00       	nop
      cc:	d4 c6       	rjmp	.+3496   	; 0xe76 <__vector_51>
      ce:	00 00       	nop
      d0:	29 c0       	rjmp	.+82     	; 0x124 <__bad_interrupt>
      d2:	00 00       	nop
      d4:	27 c0       	rjmp	.+78     	; 0x124 <__bad_interrupt>
      d6:	00 00       	nop
      d8:	25 c0       	rjmp	.+74     	; 0x124 <__bad_interrupt>
      da:	00 00       	nop
      dc:	23 c0       	rjmp	.+70     	; 0x124 <__bad_interrupt>
      de:	00 00       	nop
      e0:	21 c0       	rjmp	.+66     	; 0x124 <__bad_interrupt>
	...

000000e4 <__ctors_end>:
      e4:	11 24       	eor	r1, r1
      e6:	1f be       	out	0x3f, r1	; 63
      e8:	cf ef       	ldi	r28, 0xFF	; 255
      ea:	d1 e2       	ldi	r29, 0x21	; 33
      ec:	de bf       	out	0x3e, r29	; 62
      ee:	cd bf       	out	0x3d, r28	; 61
      f0:	00 e0       	ldi	r16, 0x00	; 0
      f2:	0c bf       	out	0x3c, r16	; 60

000000f4 <__do_copy_data>:
      f4:	12 e0       	ldi	r17, 0x02	; 2
      f6:	a0 e0       	ldi	r26, 0x00	; 0
      f8:	b2 e0       	ldi	r27, 0x02	; 2
      fa:	e8 ea       	ldi	r30, 0xA8	; 168
      fc:	f1 e1       	ldi	r31, 0x11	; 17
      fe:	00 e0       	ldi	r16, 0x00	; 0
     100:	0b bf       	out	0x3b, r16	; 59
     102:	02 c0       	rjmp	.+4      	; 0x108 <__do_copy_data+0x14>
     104:	07 90       	elpm	r0, Z+
     106:	0d 92       	st	X+, r0
     108:	a4 30       	cpi	r26, 0x04	; 4
     10a:	b1 07       	cpc	r27, r17
     10c:	d9 f7       	brne	.-10     	; 0x104 <__do_copy_data+0x10>

0000010e <__do_clear_bss>:
     10e:	23 e0       	ldi	r18, 0x03	; 3
     110:	a4 e0       	ldi	r26, 0x04	; 4
     112:	b2 e0       	ldi	r27, 0x02	; 2
     114:	01 c0       	rjmp	.+2      	; 0x118 <.do_clear_bss_start>

00000116 <.do_clear_bss_loop>:
     116:	1d 92       	st	X+, r1

00000118 <.do_clear_bss_start>:
     118:	ab 31       	cpi	r26, 0x1B	; 27
     11a:	b2 07       	cpc	r27, r18
     11c:	e1 f7       	brne	.-8      	; 0x116 <.do_clear_bss_loop>
     11e:	49 d3       	rcall	.+1682   	; 0x7b2 <main>
     120:	0c 94 d2 08 	jmp	0x11a4	; 0x11a4 <_exit>

00000124 <__bad_interrupt>:
     124:	6d cf       	rjmp	.-294    	; 0x0 <__vectors>

00000126 <init_LED_C6>:
     126:	3e 9a       	sbi	0x07, 6	; 7
     128:	18 b8       	out	0x08, r1	; 8
     12a:	08 95       	ret

0000012c <set_stationary>:
     12c:	10 92 21 02 	sts	0x0221, r1	; 0x800221 <didSporadic>
     130:	88 23       	and	r24, r24
     132:	39 f0       	breq	.+14     	; 0x142 <set_stationary+0x16>
     134:	81 e0       	ldi	r24, 0x01	; 1
     136:	90 e0       	ldi	r25, 0x00	; 0
     138:	90 93 09 02 	sts	0x0209, r25	; 0x800209 <roomba_state+0x1>
     13c:	80 93 08 02 	sts	0x0208, r24	; 0x800208 <roomba_state>
     140:	08 95       	ret
     142:	10 92 09 02 	sts	0x0209, r1	; 0x800209 <roomba_state+0x1>
     146:	10 92 08 02 	sts	0x0208, r1	; 0x800208 <roomba_state>
     14a:	08 95       	ret

0000014c <shot_fired>:
     14c:	10 92 20 02 	sts	0x0220, r1	; 0x800220 <just_shot>
     150:	2d 98       	cbi	0x05, 5	; 5
     152:	08 95       	ret

00000154 <change_state_to_user>:
     154:	10 92 09 02 	sts	0x0209, r1	; 0x800209 <roomba_state+0x1>
     158:	10 92 08 02 	sts	0x0208, r1	; 0x800208 <roomba_state>
     15c:	08 95       	ret

0000015e <check_dead>:
     15e:	8f ea       	ldi	r24, 0xAF	; 175
     160:	90 e0       	ldi	r25, 0x00	; 0
     162:	6e d4       	rcall	.+2268   	; 0xa40 <Scheduler_DeleteSporadicTask>
     164:	a5 9a       	sbi	0x14, 5	; 20
     166:	83 e0       	ldi	r24, 0x03	; 3
     168:	90 e0       	ldi	r25, 0x00	; 0
     16a:	90 93 09 02 	sts	0x0209, r25	; 0x800209 <roomba_state+0x1>
     16e:	80 93 08 02 	sts	0x0208, r24	; 0x800208 <roomba_state>
     172:	08 95       	ret

00000174 <readADC>:
     174:	90 91 7c 00 	lds	r25, 0x007C	; 0x80007c <__TEXT_REGION_LENGTH__+0x70007c>
     178:	90 7f       	andi	r25, 0xF0	; 240
     17a:	28 2f       	mov	r18, r24
     17c:	27 70       	andi	r18, 0x07	; 7
     17e:	92 2b       	or	r25, r18
     180:	90 93 7c 00 	sts	0x007C, r25	; 0x80007c <__TEXT_REGION_LENGTH__+0x70007c>
     184:	90 91 7b 00 	lds	r25, 0x007B	; 0x80007b <__TEXT_REGION_LENGTH__+0x70007b>
     188:	97 7f       	andi	r25, 0xF7	; 247
     18a:	88 70       	andi	r24, 0x08	; 8
     18c:	89 2b       	or	r24, r25
     18e:	80 93 7b 00 	sts	0x007B, r24	; 0x80007b <__TEXT_REGION_LENGTH__+0x70007b>
     192:	80 91 7a 00 	lds	r24, 0x007A	; 0x80007a <__TEXT_REGION_LENGTH__+0x70007a>
     196:	80 64       	ori	r24, 0x40	; 64
     198:	80 93 7a 00 	sts	0x007A, r24	; 0x80007a <__TEXT_REGION_LENGTH__+0x70007a>
     19c:	80 91 7a 00 	lds	r24, 0x007A	; 0x80007a <__TEXT_REGION_LENGTH__+0x70007a>
     1a0:	86 fd       	sbrc	r24, 6
     1a2:	fc cf       	rjmp	.-8      	; 0x19c <readADC+0x28>
     1a4:	80 91 79 00 	lds	r24, 0x0079	; 0x800079 <__TEXT_REGION_LENGTH__+0x700079>
     1a8:	90 e0       	ldi	r25, 0x00	; 0
     1aa:	08 95       	ret

000001ac <light_sense>:
     1ac:	80 91 00 02 	lds	r24, 0x0200	; 0x800200 <__data_start>
     1b0:	e1 df       	rcall	.-62     	; 0x174 <readADC>
     1b2:	bc 01       	movw	r22, r24
     1b4:	80 e0       	ldi	r24, 0x00	; 0
     1b6:	90 e0       	ldi	r25, 0x00	; 0
     1b8:	bd d6       	rcall	.+3450   	; 0xf34 <__floatunsisf>
     1ba:	60 93 2a 02 	sts	0x022A, r22	; 0x80022a <lightSensor_val>
     1be:	70 93 2b 02 	sts	0x022B, r23	; 0x80022b <lightSensor_val+0x1>
     1c2:	80 93 2c 02 	sts	0x022C, r24	; 0x80022c <lightSensor_val+0x2>
     1c6:	90 93 2d 02 	sts	0x022D, r25	; 0x80022d <lightSensor_val+0x3>
     1ca:	20 e0       	ldi	r18, 0x00	; 0
     1cc:	30 e0       	ldi	r19, 0x00	; 0
     1ce:	40 ef       	ldi	r20, 0xF0	; 240
     1d0:	52 e4       	ldi	r21, 0x42	; 66
     1d2:	59 d7       	rcall	.+3762   	; 0x1086 <__gesf2>
     1d4:	18 16       	cp	r1, r24
     1d6:	6c f4       	brge	.+26     	; 0x1f2 <light_sense+0x46>
     1d8:	80 91 02 01 	lds	r24, 0x0102	; 0x800102 <__TEXT_REGION_LENGTH__+0x700102>
     1dc:	8f 7d       	andi	r24, 0xDF	; 223
     1de:	80 93 02 01 	sts	0x0102, r24	; 0x800102 <__TEXT_REGION_LENGTH__+0x700102>
     1e2:	25 e0       	ldi	r18, 0x05	; 5
     1e4:	30 e0       	ldi	r19, 0x00	; 0
     1e6:	41 e0       	ldi	r20, 0x01	; 1
     1e8:	6f ea       	ldi	r22, 0xAF	; 175
     1ea:	70 e0       	ldi	r23, 0x00	; 0
     1ec:	8b e4       	ldi	r24, 0x4B	; 75
     1ee:	90 e0       	ldi	r25, 0x00	; 0
     1f0:	07 c4       	rjmp	.+2062   	; 0xa00 <Scheduler_AddSporadicTask>
     1f2:	8f ea       	ldi	r24, 0xAF	; 175
     1f4:	90 e0       	ldi	r25, 0x00	; 0
     1f6:	24 d4       	rcall	.+2120   	; 0xa40 <Scheduler_DeleteSporadicTask>
     1f8:	80 91 02 01 	lds	r24, 0x0102	; 0x800102 <__TEXT_REGION_LENGTH__+0x700102>
     1fc:	80 62       	ori	r24, 0x20	; 32
     1fe:	80 93 02 01 	sts	0x0102, r24	; 0x800102 <__TEXT_REGION_LENGTH__+0x700102>
     202:	08 95       	ret

00000204 <roomba_sense>:
     204:	60 e0       	ldi	r22, 0x00	; 0
     206:	85 e9       	ldi	r24, 0x95	; 149
     208:	cc d5       	rcall	.+2968   	; 0xda2 <uart_putchar>
     20a:	60 e0       	ldi	r22, 0x00	; 0
     20c:	82 e0       	ldi	r24, 0x02	; 2
     20e:	c9 d5       	rcall	.+2962   	; 0xda2 <uart_putchar>
     210:	60 e0       	ldi	r22, 0x00	; 0
     212:	87 e0       	ldi	r24, 0x07	; 7
     214:	c6 d5       	rcall	.+2956   	; 0xda2 <uart_putchar>
     216:	60 e0       	ldi	r22, 0x00	; 0
     218:	8d e0       	ldi	r24, 0x0D	; 13
     21a:	c3 d5       	rcall	.+2950   	; 0xda2 <uart_putchar>
     21c:	80 e0       	ldi	r24, 0x00	; 0
     21e:	ea d5       	rcall	.+3028   	; 0xdf4 <uart_bytes_received>
     220:	82 30       	cpi	r24, 0x02	; 2
     222:	01 f5       	brne	.+64     	; 0x264 <roomba_sense+0x60>
     224:	60 e0       	ldi	r22, 0x00	; 0
     226:	80 e0       	ldi	r24, 0x00	; 0
     228:	90 e0       	ldi	r25, 0x00	; 0
     22a:	ce d5       	rcall	.+2972   	; 0xdc8 <uart_get_byte>
     22c:	80 93 05 02 	sts	0x0205, r24	; 0x800205 <bumper_hit>
     230:	60 e0       	ldi	r22, 0x00	; 0
     232:	81 e0       	ldi	r24, 0x01	; 1
     234:	90 e0       	ldi	r25, 0x00	; 0
     236:	c8 d5       	rcall	.+2960   	; 0xdc8 <uart_get_byte>
     238:	80 93 04 02 	sts	0x0204, r24	; 0x800204 <__data_end>
     23c:	90 91 05 02 	lds	r25, 0x0205	; 0x800205 <bumper_hit>
     240:	90 fd       	sbrc	r25, 0
     242:	02 c0       	rjmp	.+4      	; 0x248 <roomba_sense+0x44>
     244:	88 23       	and	r24, r24
     246:	71 f0       	breq	.+28     	; 0x264 <roomba_sense+0x60>
     248:	82 e0       	ldi	r24, 0x02	; 2
     24a:	90 e0       	ldi	r25, 0x00	; 0
     24c:	90 93 09 02 	sts	0x0209, r25	; 0x800209 <roomba_state+0x1>
     250:	80 93 08 02 	sts	0x0208, r24	; 0x800208 <roomba_state>
     254:	25 e0       	ldi	r18, 0x05	; 5
     256:	30 e0       	ldi	r19, 0x00	; 0
     258:	41 e0       	ldi	r20, 0x01	; 1
     25a:	6a ea       	ldi	r22, 0xAA	; 170
     25c:	70 e0       	ldi	r23, 0x00	; 0
     25e:	82 e3       	ldi	r24, 0x32	; 50
     260:	90 e0       	ldi	r25, 0x00	; 0
     262:	ce c3       	rjmp	.+1948   	; 0xa00 <Scheduler_AddSporadicTask>
     264:	08 95       	ret

00000266 <pulse_pin1_task>:
     266:	88 23       	and	r24, r24
     268:	09 f4       	brne	.+2      	; 0x26c <pulse_pin1_task+0x6>
     26a:	8b c2       	rjmp	.+1302   	; 0x782 <__LOCK_REGION_LENGTH__+0x382>
     26c:	cb df       	rcall	.-106    	; 0x204 <roomba_sense>
     26e:	80 91 08 02 	lds	r24, 0x0208	; 0x800208 <roomba_state>
     272:	90 91 09 02 	lds	r25, 0x0209	; 0x800209 <roomba_state+0x1>
     276:	00 97       	sbiw	r24, 0x00	; 0
     278:	09 f0       	breq	.+2      	; 0x27c <pulse_pin1_task+0x16>
     27a:	9a c1       	rjmp	.+820    	; 0x5b0 <__LOCK_REGION_LENGTH__+0x1b0>
     27c:	97 df       	rcall	.-210    	; 0x1ac <light_sense>
     27e:	80 91 21 02 	lds	r24, 0x0221	; 0x800221 <didSporadic>
     282:	81 11       	cpse	r24, r1
     284:	0b c0       	rjmp	.+22     	; 0x29c <pulse_pin1_task+0x36>
     286:	25 e0       	ldi	r18, 0x05	; 5
     288:	30 e0       	ldi	r19, 0x00	; 0
     28a:	41 e0       	ldi	r20, 0x01	; 1
     28c:	66 e9       	ldi	r22, 0x96	; 150
     28e:	70 e0       	ldi	r23, 0x00	; 0
     290:	8c ed       	ldi	r24, 0xDC	; 220
     292:	95 e0       	ldi	r25, 0x05	; 5
     294:	b5 d3       	rcall	.+1898   	; 0xa00 <Scheduler_AddSporadicTask>
     296:	81 e0       	ldi	r24, 0x01	; 1
     298:	80 93 21 02 	sts	0x0221, r24	; 0x800221 <didSporadic>
     29c:	81 e0       	ldi	r24, 0x01	; 1
     29e:	aa d5       	rcall	.+2900   	; 0xdf4 <uart_bytes_received>
     2a0:	8a 30       	cpi	r24, 0x0A	; 10
     2a2:	08 f4       	brcc	.+2      	; 0x2a6 <pulse_pin1_task+0x40>
     2a4:	8e c0       	rjmp	.+284    	; 0x3c2 <pulse_pin1_task+0x15c>
     2a6:	61 e0       	ldi	r22, 0x01	; 1
     2a8:	80 e0       	ldi	r24, 0x00	; 0
     2aa:	90 e0       	ldi	r25, 0x00	; 0
     2ac:	8d d5       	rcall	.+2842   	; 0xdc8 <uart_get_byte>
     2ae:	90 e0       	ldi	r25, 0x00	; 0
     2b0:	90 93 1f 02 	sts	0x021F, r25	; 0x80021f <speedHIGH+0x1>
     2b4:	80 93 1e 02 	sts	0x021E, r24	; 0x80021e <speedHIGH>
     2b8:	61 e0       	ldi	r22, 0x01	; 1
     2ba:	81 e0       	ldi	r24, 0x01	; 1
     2bc:	90 e0       	ldi	r25, 0x00	; 0
     2be:	84 d5       	rcall	.+2824   	; 0xdc8 <uart_get_byte>
     2c0:	90 e0       	ldi	r25, 0x00	; 0
     2c2:	90 93 1d 02 	sts	0x021D, r25	; 0x80021d <speedLOW+0x1>
     2c6:	80 93 1c 02 	sts	0x021C, r24	; 0x80021c <speedLOW>
     2ca:	20 e0       	ldi	r18, 0x00	; 0
     2cc:	30 e0       	ldi	r19, 0x00	; 0
     2ce:	30 91 1e 02 	lds	r19, 0x021E	; 0x80021e <speedHIGH>
     2d2:	82 2b       	or	r24, r18
     2d4:	93 2b       	or	r25, r19
     2d6:	90 93 29 02 	sts	0x0229, r25	; 0x800229 <speedRoomba+0x1>
     2da:	80 93 28 02 	sts	0x0228, r24	; 0x800228 <speedRoomba>
     2de:	61 e0       	ldi	r22, 0x01	; 1
     2e0:	82 e0       	ldi	r24, 0x02	; 2
     2e2:	90 e0       	ldi	r25, 0x00	; 0
     2e4:	71 d5       	rcall	.+2786   	; 0xdc8 <uart_get_byte>
     2e6:	90 e0       	ldi	r25, 0x00	; 0
     2e8:	90 93 1b 02 	sts	0x021B, r25	; 0x80021b <radiusHIGH+0x1>
     2ec:	80 93 1a 02 	sts	0x021A, r24	; 0x80021a <radiusHIGH>
     2f0:	61 e0       	ldi	r22, 0x01	; 1
     2f2:	83 e0       	ldi	r24, 0x03	; 3
     2f4:	90 e0       	ldi	r25, 0x00	; 0
     2f6:	68 d5       	rcall	.+2768   	; 0xdc8 <uart_get_byte>
     2f8:	90 e0       	ldi	r25, 0x00	; 0
     2fa:	90 93 19 02 	sts	0x0219, r25	; 0x800219 <radiusLOW+0x1>
     2fe:	80 93 18 02 	sts	0x0218, r24	; 0x800218 <radiusLOW>
     302:	20 e0       	ldi	r18, 0x00	; 0
     304:	30 e0       	ldi	r19, 0x00	; 0
     306:	30 91 1a 02 	lds	r19, 0x021A	; 0x80021a <radiusHIGH>
     30a:	82 2b       	or	r24, r18
     30c:	93 2b       	or	r25, r19
     30e:	90 93 27 02 	sts	0x0227, r25	; 0x800227 <radiusRoomba+0x1>
     312:	80 93 26 02 	sts	0x0226, r24	; 0x800226 <radiusRoomba>
     316:	61 e0       	ldi	r22, 0x01	; 1
     318:	84 e0       	ldi	r24, 0x04	; 4
     31a:	90 e0       	ldi	r25, 0x00	; 0
     31c:	55 d5       	rcall	.+2730   	; 0xdc8 <uart_get_byte>
     31e:	90 e0       	ldi	r25, 0x00	; 0
     320:	90 93 17 02 	sts	0x0217, r25	; 0x800217 <xJoyHIGH+0x1>
     324:	80 93 16 02 	sts	0x0216, r24	; 0x800216 <xJoyHIGH>
     328:	61 e0       	ldi	r22, 0x01	; 1
     32a:	85 e0       	ldi	r24, 0x05	; 5
     32c:	90 e0       	ldi	r25, 0x00	; 0
     32e:	4c d5       	rcall	.+2712   	; 0xdc8 <uart_get_byte>
     330:	90 e0       	ldi	r25, 0x00	; 0
     332:	90 93 15 02 	sts	0x0215, r25	; 0x800215 <xJoyLOW+0x1>
     336:	80 93 14 02 	sts	0x0214, r24	; 0x800214 <xJoyLOW>
     33a:	20 e0       	ldi	r18, 0x00	; 0
     33c:	30 e0       	ldi	r19, 0x00	; 0
     33e:	30 91 16 02 	lds	r19, 0x0216	; 0x800216 <xJoyHIGH>
     342:	82 2b       	or	r24, r18
     344:	93 2b       	or	r25, r19
     346:	90 93 25 02 	sts	0x0225, r25	; 0x800225 <xJoy+0x1>
     34a:	80 93 24 02 	sts	0x0224, r24	; 0x800224 <xJoy>
     34e:	61 e0       	ldi	r22, 0x01	; 1
     350:	86 e0       	ldi	r24, 0x06	; 6
     352:	90 e0       	ldi	r25, 0x00	; 0
     354:	39 d5       	rcall	.+2674   	; 0xdc8 <uart_get_byte>
     356:	90 e0       	ldi	r25, 0x00	; 0
     358:	90 93 13 02 	sts	0x0213, r25	; 0x800213 <yJoyHIGH+0x1>
     35c:	80 93 12 02 	sts	0x0212, r24	; 0x800212 <yJoyHIGH>
     360:	61 e0       	ldi	r22, 0x01	; 1
     362:	87 e0       	ldi	r24, 0x07	; 7
     364:	90 e0       	ldi	r25, 0x00	; 0
     366:	30 d5       	rcall	.+2656   	; 0xdc8 <uart_get_byte>
     368:	90 e0       	ldi	r25, 0x00	; 0
     36a:	90 93 11 02 	sts	0x0211, r25	; 0x800211 <yJoyLOW+0x1>
     36e:	80 93 10 02 	sts	0x0210, r24	; 0x800210 <yJoyLOW>
     372:	20 e0       	ldi	r18, 0x00	; 0
     374:	30 e0       	ldi	r19, 0x00	; 0
     376:	30 91 12 02 	lds	r19, 0x0212	; 0x800212 <yJoyHIGH>
     37a:	82 2b       	or	r24, r18
     37c:	93 2b       	or	r25, r19
     37e:	90 93 23 02 	sts	0x0223, r25	; 0x800223 <yJoy+0x1>
     382:	80 93 22 02 	sts	0x0222, r24	; 0x800222 <yJoy>
     386:	61 e0       	ldi	r22, 0x01	; 1
     388:	88 e0       	ldi	r24, 0x08	; 8
     38a:	90 e0       	ldi	r25, 0x00	; 0
     38c:	1d d5       	rcall	.+2618   	; 0xdc8 <uart_get_byte>
     38e:	90 e0       	ldi	r25, 0x00	; 0
     390:	90 93 0f 02 	sts	0x020F, r25	; 0x80020f <LeftJoyButtonHIGH+0x1>
     394:	80 93 0e 02 	sts	0x020E, r24	; 0x80020e <LeftJoyButtonHIGH>
     398:	61 e0       	ldi	r22, 0x01	; 1
     39a:	89 e0       	ldi	r24, 0x09	; 9
     39c:	90 e0       	ldi	r25, 0x00	; 0
     39e:	14 d5       	rcall	.+2600   	; 0xdc8 <uart_get_byte>
     3a0:	90 e0       	ldi	r25, 0x00	; 0
     3a2:	90 93 0d 02 	sts	0x020D, r25	; 0x80020d <LeftJoyButtonLOW+0x1>
     3a6:	80 93 0c 02 	sts	0x020C, r24	; 0x80020c <LeftJoyButtonLOW>
     3aa:	20 e0       	ldi	r18, 0x00	; 0
     3ac:	30 e0       	ldi	r19, 0x00	; 0
     3ae:	30 91 0e 02 	lds	r19, 0x020E	; 0x80020e <LeftJoyButtonHIGH>
     3b2:	82 2b       	or	r24, r18
     3b4:	93 2b       	or	r25, r19
     3b6:	90 93 0b 02 	sts	0x020B, r25	; 0x80020b <LeftJoyButton+0x1>
     3ba:	80 93 0a 02 	sts	0x020A, r24	; 0x80020a <LeftJoyButton>
     3be:	81 e0       	ldi	r24, 0x01	; 1
     3c0:	25 d5       	rcall	.+2634   	; 0xe0c <uart_reset_receive>
     3c2:	60 91 26 02 	lds	r22, 0x0226	; 0x800226 <radiusRoomba>
     3c6:	70 91 27 02 	lds	r23, 0x0227	; 0x800227 <radiusRoomba+0x1>
     3ca:	cb 01       	movw	r24, r22
     3cc:	43 96       	adiw	r24, 0x13	; 19
     3ce:	87 97       	sbiw	r24, 0x27	; 39
     3d0:	28 f4       	brcc	.+10     	; 0x3dc <pulse_pin1_task+0x176>
     3d2:	10 92 27 02 	sts	0x0227, r1	; 0x800227 <radiusRoomba+0x1>
     3d6:	10 92 26 02 	sts	0x0226, r1	; 0x800226 <radiusRoomba>
     3da:	4a c0       	rjmp	.+148    	; 0x470 <__LOCK_REGION_LENGTH__+0x70>
     3dc:	07 2e       	mov	r0, r23
     3de:	00 0c       	add	r0, r0
     3e0:	88 0b       	sbc	r24, r24
     3e2:	99 0b       	sbc	r25, r25
     3e4:	a9 d5       	rcall	.+2898   	; 0xf38 <__floatsisf>
     3e6:	25 e8       	ldi	r18, 0x85	; 133
     3e8:	3b ee       	ldi	r19, 0xEB	; 235
     3ea:	4d e7       	ldi	r20, 0x7D	; 125
     3ec:	51 e4       	ldi	r21, 0x41	; 65
     3ee:	4f d6       	rcall	.+3230   	; 0x108e <__mulsf3>
     3f0:	70 d5       	rcall	.+2784   	; 0xed2 <__fixsfsi>
     3f2:	61 3d       	cpi	r22, 0xD1	; 209
     3f4:	27 e0       	ldi	r18, 0x07	; 7
     3f6:	72 07       	cpc	r23, r18
     3f8:	2c f4       	brge	.+10     	; 0x404 <__LOCK_REGION_LENGTH__+0x4>
     3fa:	70 93 27 02 	sts	0x0227, r23	; 0x800227 <radiusRoomba+0x1>
     3fe:	60 93 26 02 	sts	0x0226, r22	; 0x800226 <radiusRoomba>
     402:	06 c0       	rjmp	.+12     	; 0x410 <__LOCK_REGION_LENGTH__+0x10>
     404:	8f ec       	ldi	r24, 0xCF	; 207
     406:	97 e0       	ldi	r25, 0x07	; 7
     408:	90 93 27 02 	sts	0x0227, r25	; 0x800227 <radiusRoomba+0x1>
     40c:	80 93 26 02 	sts	0x0226, r24	; 0x800226 <radiusRoomba>
     410:	80 91 26 02 	lds	r24, 0x0226	; 0x800226 <radiusRoomba>
     414:	90 91 27 02 	lds	r25, 0x0227	; 0x800227 <radiusRoomba+0x1>
     418:	80 33       	cpi	r24, 0x30	; 48
     41a:	98 4f       	sbci	r25, 0xF8	; 248
     41c:	34 f4       	brge	.+12     	; 0x42a <__LOCK_REGION_LENGTH__+0x2a>
     41e:	81 e3       	ldi	r24, 0x31	; 49
     420:	98 ef       	ldi	r25, 0xF8	; 248
     422:	90 93 27 02 	sts	0x0227, r25	; 0x800227 <radiusRoomba+0x1>
     426:	80 93 26 02 	sts	0x0226, r24	; 0x800226 <radiusRoomba>
     42a:	20 91 26 02 	lds	r18, 0x0226	; 0x800226 <radiusRoomba>
     42e:	30 91 27 02 	lds	r19, 0x0227	; 0x800227 <radiusRoomba+0x1>
     432:	c9 01       	movw	r24, r18
     434:	44 97       	sbiw	r24, 0x14	; 20
     436:	8c 3b       	cpi	r24, 0xBC	; 188
     438:	97 40       	sbci	r25, 0x07	; 7
     43a:	40 f4       	brcc	.+16     	; 0x44c <__LOCK_REGION_LENGTH__+0x4c>
     43c:	86 e6       	ldi	r24, 0x66	; 102
     43e:	98 e0       	ldi	r25, 0x08	; 8
     440:	82 1b       	sub	r24, r18
     442:	93 0b       	sbc	r25, r19
     444:	90 93 27 02 	sts	0x0227, r25	; 0x800227 <radiusRoomba+0x1>
     448:	80 93 26 02 	sts	0x0226, r24	; 0x800226 <radiusRoomba>
     44c:	20 91 26 02 	lds	r18, 0x0226	; 0x800226 <radiusRoomba>
     450:	30 91 27 02 	lds	r19, 0x0227	; 0x800227 <radiusRoomba+0x1>
     454:	c9 01       	movw	r24, r18
     456:	81 53       	subi	r24, 0x31	; 49
     458:	98 4f       	sbci	r25, 0xF8	; 248
     45a:	8c 3b       	cpi	r24, 0xBC	; 188
     45c:	97 40       	sbci	r25, 0x07	; 7
     45e:	40 f4       	brcc	.+16     	; 0x470 <__LOCK_REGION_LENGTH__+0x70>
     460:	8a e9       	ldi	r24, 0x9A	; 154
     462:	97 ef       	ldi	r25, 0xF7	; 247
     464:	82 1b       	sub	r24, r18
     466:	93 0b       	sbc	r25, r19
     468:	90 93 27 02 	sts	0x0227, r25	; 0x800227 <radiusRoomba+0x1>
     46c:	80 93 26 02 	sts	0x0226, r24	; 0x800226 <radiusRoomba>
     470:	60 91 28 02 	lds	r22, 0x0228	; 0x800228 <speedRoomba>
     474:	70 91 29 02 	lds	r23, 0x0229	; 0x800229 <speedRoomba+0x1>
     478:	cb 01       	movw	r24, r22
     47a:	43 96       	adiw	r24, 0x13	; 19
     47c:	87 97       	sbiw	r24, 0x27	; 39
     47e:	20 f5       	brcc	.+72     	; 0x4c8 <__LOCK_REGION_LENGTH__+0xc8>
     480:	10 92 29 02 	sts	0x0229, r1	; 0x800229 <speedRoomba+0x1>
     484:	10 92 28 02 	sts	0x0228, r1	; 0x800228 <speedRoomba>
     488:	80 91 26 02 	lds	r24, 0x0226	; 0x800226 <radiusRoomba>
     48c:	90 91 27 02 	lds	r25, 0x0227	; 0x800227 <radiusRoomba+0x1>
     490:	85 31       	cpi	r24, 0x15	; 21
     492:	91 05       	cpc	r25, r1
     494:	4c f0       	brlt	.+18     	; 0x4a8 <__LOCK_REGION_LENGTH__+0xa8>
     496:	8e e5       	ldi	r24, 0x5E	; 94
     498:	91 e0       	ldi	r25, 0x01	; 1
     49a:	90 93 29 02 	sts	0x0229, r25	; 0x800229 <speedRoomba+0x1>
     49e:	80 93 28 02 	sts	0x0228, r24	; 0x800228 <speedRoomba>
     4a2:	81 e0       	ldi	r24, 0x01	; 1
     4a4:	90 e0       	ldi	r25, 0x00	; 0
     4a6:	0b c0       	rjmp	.+22     	; 0x4be <__LOCK_REGION_LENGTH__+0xbe>
     4a8:	8c 3e       	cpi	r24, 0xEC	; 236
     4aa:	9f 4f       	sbci	r25, 0xFF	; 255
     4ac:	a4 f5       	brge	.+104    	; 0x516 <__LOCK_REGION_LENGTH__+0x116>
     4ae:	8e e5       	ldi	r24, 0x5E	; 94
     4b0:	91 e0       	ldi	r25, 0x01	; 1
     4b2:	90 93 29 02 	sts	0x0229, r25	; 0x800229 <speedRoomba+0x1>
     4b6:	80 93 28 02 	sts	0x0228, r24	; 0x800228 <speedRoomba>
     4ba:	8f ef       	ldi	r24, 0xFF	; 255
     4bc:	9f ef       	ldi	r25, 0xFF	; 255
     4be:	90 93 27 02 	sts	0x0227, r25	; 0x800227 <radiusRoomba+0x1>
     4c2:	80 93 26 02 	sts	0x0226, r24	; 0x800226 <radiusRoomba>
     4c6:	27 c0       	rjmp	.+78     	; 0x516 <__LOCK_REGION_LENGTH__+0x116>
     4c8:	07 2e       	mov	r0, r23
     4ca:	00 0c       	add	r0, r0
     4cc:	88 0b       	sbc	r24, r24
     4ce:	99 0b       	sbc	r25, r25
     4d0:	33 d5       	rcall	.+2662   	; 0xf38 <__floatsisf>
     4d2:	20 e0       	ldi	r18, 0x00	; 0
     4d4:	30 e0       	ldi	r19, 0x00	; 0
     4d6:	40 e8       	ldi	r20, 0x80	; 128
     4d8:	50 e4       	ldi	r21, 0x40	; 64
     4da:	d9 d5       	rcall	.+2994   	; 0x108e <__mulsf3>
     4dc:	fa d4       	rcall	.+2548   	; 0xed2 <__fixsfsi>
     4de:	65 3f       	cpi	r22, 0xF5	; 245
     4e0:	41 e0       	ldi	r20, 0x01	; 1
     4e2:	74 07       	cpc	r23, r20
     4e4:	2c f4       	brge	.+10     	; 0x4f0 <__LOCK_REGION_LENGTH__+0xf0>
     4e6:	70 93 29 02 	sts	0x0229, r23	; 0x800229 <speedRoomba+0x1>
     4ea:	60 93 28 02 	sts	0x0228, r22	; 0x800228 <speedRoomba>
     4ee:	06 c0       	rjmp	.+12     	; 0x4fc <__LOCK_REGION_LENGTH__+0xfc>
     4f0:	84 ef       	ldi	r24, 0xF4	; 244
     4f2:	91 e0       	ldi	r25, 0x01	; 1
     4f4:	90 93 29 02 	sts	0x0229, r25	; 0x800229 <speedRoomba+0x1>
     4f8:	80 93 28 02 	sts	0x0228, r24	; 0x800228 <speedRoomba>
     4fc:	80 91 28 02 	lds	r24, 0x0228	; 0x800228 <speedRoomba>
     500:	90 91 29 02 	lds	r25, 0x0229	; 0x800229 <speedRoomba+0x1>
     504:	8c 30       	cpi	r24, 0x0C	; 12
     506:	9e 4f       	sbci	r25, 0xFE	; 254
     508:	34 f4       	brge	.+12     	; 0x516 <__LOCK_REGION_LENGTH__+0x116>
     50a:	8c e0       	ldi	r24, 0x0C	; 12
     50c:	9e ef       	ldi	r25, 0xFE	; 254
     50e:	90 93 29 02 	sts	0x0229, r25	; 0x800229 <speedRoomba+0x1>
     512:	80 93 28 02 	sts	0x0228, r24	; 0x800228 <speedRoomba>
     516:	60 91 26 02 	lds	r22, 0x0226	; 0x800226 <radiusRoomba>
     51a:	70 91 27 02 	lds	r23, 0x0227	; 0x800227 <radiusRoomba+0x1>
     51e:	80 91 28 02 	lds	r24, 0x0228	; 0x800228 <speedRoomba>
     522:	90 91 29 02 	lds	r25, 0x0229	; 0x800229 <speedRoomba+0x1>
     526:	ad d1       	rcall	.+858    	; 0x882 <Roomba_Drive>
     528:	80 91 24 02 	lds	r24, 0x0224	; 0x800224 <xJoy>
     52c:	90 91 25 02 	lds	r25, 0x0225	; 0x800225 <xJoy+0x1>
     530:	87 39       	cpi	r24, 0x97	; 151
     532:	91 05       	cpc	r25, r1
     534:	1c f0       	brlt	.+6      	; 0x53c <__LOCK_REGION_LENGTH__+0x13c>
     536:	8d ef       	ldi	r24, 0xFD	; 253
     538:	9f ef       	ldi	r25, 0xFF	; 255
     53a:	05 c0       	rjmp	.+10     	; 0x546 <__LOCK_REGION_LENGTH__+0x146>
     53c:	8d 37       	cpi	r24, 0x7D	; 125
     53e:	91 05       	cpc	r25, r1
     540:	1c f4       	brge	.+6      	; 0x548 <__LOCK_REGION_LENGTH__+0x148>
     542:	83 e0       	ldi	r24, 0x03	; 3
     544:	90 e0       	ldi	r25, 0x00	; 0
     546:	42 d3       	rcall	.+1668   	; 0xbcc <adjust_pan_angle>
     548:	80 91 22 02 	lds	r24, 0x0222	; 0x800222 <yJoy>
     54c:	90 91 23 02 	lds	r25, 0x0223	; 0x800223 <yJoy+0x1>
     550:	8d 37       	cpi	r24, 0x7D	; 125
     552:	91 05       	cpc	r25, r1
     554:	1c f4       	brge	.+6      	; 0x55c <__LOCK_REGION_LENGTH__+0x15c>
     556:	83 e0       	ldi	r24, 0x03	; 3
     558:	90 e0       	ldi	r25, 0x00	; 0
     55a:	05 c0       	rjmp	.+10     	; 0x566 <__LOCK_REGION_LENGTH__+0x166>
     55c:	87 39       	cpi	r24, 0x97	; 151
     55e:	91 05       	cpc	r25, r1
     560:	1c f0       	brlt	.+6      	; 0x568 <__LOCK_REGION_LENGTH__+0x168>
     562:	8d ef       	ldi	r24, 0xFD	; 253
     564:	9f ef       	ldi	r25, 0xFF	; 255
     566:	90 d3       	rcall	.+1824   	; 0xc88 <adjust_tilt_angle>
     568:	80 91 0a 02 	lds	r24, 0x020A	; 0x80020a <LeftJoyButton>
     56c:	90 91 0b 02 	lds	r25, 0x020B	; 0x80020b <LeftJoyButton+0x1>
     570:	01 97       	sbiw	r24, 0x01	; 1
     572:	09 f0       	breq	.+2      	; 0x576 <__LOCK_REGION_LENGTH__+0x176>
     574:	06 c1       	rjmp	.+524    	; 0x782 <__LOCK_REGION_LENGTH__+0x382>
     576:	80 91 20 02 	lds	r24, 0x0220	; 0x800220 <just_shot>
     57a:	81 11       	cpse	r24, r1
     57c:	02 c1       	rjmp	.+516    	; 0x782 <__LOCK_REGION_LENGTH__+0x382>
     57e:	80 91 06 02 	lds	r24, 0x0206	; 0x800206 <shot_count>
     582:	90 91 07 02 	lds	r25, 0x0207	; 0x800207 <shot_count+0x1>
     586:	01 96       	adiw	r24, 0x01	; 1
     588:	90 93 07 02 	sts	0x0207, r25	; 0x800207 <shot_count+0x1>
     58c:	80 93 06 02 	sts	0x0206, r24	; 0x800206 <shot_count>
     590:	06 97       	sbiw	r24, 0x06	; 6
     592:	0c f0       	brlt	.+2      	; 0x596 <__LOCK_REGION_LENGTH__+0x196>
     594:	e4 c0       	rjmp	.+456    	; 0x75e <__LOCK_REGION_LENGTH__+0x35e>
     596:	2d 9a       	sbi	0x05, 5	; 5
     598:	25 e0       	ldi	r18, 0x05	; 5
     59a:	30 e0       	ldi	r19, 0x00	; 0
     59c:	41 e0       	ldi	r20, 0x01	; 1
     59e:	66 ea       	ldi	r22, 0xA6	; 166
     5a0:	70 e0       	ldi	r23, 0x00	; 0
     5a2:	84 e6       	ldi	r24, 0x64	; 100
     5a4:	90 e0       	ldi	r25, 0x00	; 0
     5a6:	2c d2       	rcall	.+1112   	; 0xa00 <Scheduler_AddSporadicTask>
     5a8:	81 e0       	ldi	r24, 0x01	; 1
     5aa:	80 93 20 02 	sts	0x0220, r24	; 0x800220 <just_shot>
     5ae:	08 95       	ret
     5b0:	81 30       	cpi	r24, 0x01	; 1
     5b2:	91 05       	cpc	r25, r1
     5b4:	09 f0       	breq	.+2      	; 0x5b8 <__LOCK_REGION_LENGTH__+0x1b8>
     5b6:	d5 c0       	rjmp	.+426    	; 0x762 <__LOCK_REGION_LENGTH__+0x362>
     5b8:	f9 dd       	rcall	.-1038   	; 0x1ac <light_sense>
     5ba:	80 91 21 02 	lds	r24, 0x0221	; 0x800221 <didSporadic>
     5be:	81 11       	cpse	r24, r1
     5c0:	0b c0       	rjmp	.+22     	; 0x5d8 <__LOCK_REGION_LENGTH__+0x1d8>
     5c2:	25 e0       	ldi	r18, 0x05	; 5
     5c4:	30 e0       	ldi	r19, 0x00	; 0
     5c6:	40 e0       	ldi	r20, 0x00	; 0
     5c8:	66 e9       	ldi	r22, 0x96	; 150
     5ca:	70 e0       	ldi	r23, 0x00	; 0
     5cc:	8c ed       	ldi	r24, 0xDC	; 220
     5ce:	95 e0       	ldi	r25, 0x05	; 5
     5d0:	17 d2       	rcall	.+1070   	; 0xa00 <Scheduler_AddSporadicTask>
     5d2:	81 e0       	ldi	r24, 0x01	; 1
     5d4:	80 93 21 02 	sts	0x0221, r24	; 0x800221 <didSporadic>
     5d8:	81 e0       	ldi	r24, 0x01	; 1
     5da:	0c d4       	rcall	.+2072   	; 0xdf4 <uart_bytes_received>
     5dc:	89 30       	cpi	r24, 0x09	; 9
     5de:	08 f4       	brcc	.+2      	; 0x5e2 <__LOCK_REGION_LENGTH__+0x1e2>
     5e0:	5f c0       	rjmp	.+190    	; 0x6a0 <__LOCK_REGION_LENGTH__+0x2a0>
     5e2:	61 e0       	ldi	r22, 0x01	; 1
     5e4:	82 e0       	ldi	r24, 0x02	; 2
     5e6:	90 e0       	ldi	r25, 0x00	; 0
     5e8:	ef d3       	rcall	.+2014   	; 0xdc8 <uart_get_byte>
     5ea:	90 e0       	ldi	r25, 0x00	; 0
     5ec:	90 93 1b 02 	sts	0x021B, r25	; 0x80021b <radiusHIGH+0x1>
     5f0:	80 93 1a 02 	sts	0x021A, r24	; 0x80021a <radiusHIGH>
     5f4:	61 e0       	ldi	r22, 0x01	; 1
     5f6:	83 e0       	ldi	r24, 0x03	; 3
     5f8:	90 e0       	ldi	r25, 0x00	; 0
     5fa:	e6 d3       	rcall	.+1996   	; 0xdc8 <uart_get_byte>
     5fc:	90 e0       	ldi	r25, 0x00	; 0
     5fe:	90 93 19 02 	sts	0x0219, r25	; 0x800219 <radiusLOW+0x1>
     602:	80 93 18 02 	sts	0x0218, r24	; 0x800218 <radiusLOW>
     606:	20 e0       	ldi	r18, 0x00	; 0
     608:	30 e0       	ldi	r19, 0x00	; 0
     60a:	30 91 1a 02 	lds	r19, 0x021A	; 0x80021a <radiusHIGH>
     60e:	82 2b       	or	r24, r18
     610:	93 2b       	or	r25, r19
     612:	90 93 27 02 	sts	0x0227, r25	; 0x800227 <radiusRoomba+0x1>
     616:	80 93 26 02 	sts	0x0226, r24	; 0x800226 <radiusRoomba>
     61a:	61 e0       	ldi	r22, 0x01	; 1
     61c:	84 e0       	ldi	r24, 0x04	; 4
     61e:	90 e0       	ldi	r25, 0x00	; 0
     620:	d3 d3       	rcall	.+1958   	; 0xdc8 <uart_get_byte>
     622:	90 e0       	ldi	r25, 0x00	; 0
     624:	90 93 17 02 	sts	0x0217, r25	; 0x800217 <xJoyHIGH+0x1>
     628:	80 93 16 02 	sts	0x0216, r24	; 0x800216 <xJoyHIGH>
     62c:	61 e0       	ldi	r22, 0x01	; 1
     62e:	85 e0       	ldi	r24, 0x05	; 5
     630:	90 e0       	ldi	r25, 0x00	; 0
     632:	ca d3       	rcall	.+1940   	; 0xdc8 <uart_get_byte>
     634:	90 e0       	ldi	r25, 0x00	; 0
     636:	90 93 15 02 	sts	0x0215, r25	; 0x800215 <xJoyLOW+0x1>
     63a:	80 93 14 02 	sts	0x0214, r24	; 0x800214 <xJoyLOW>
     63e:	20 e0       	ldi	r18, 0x00	; 0
     640:	30 e0       	ldi	r19, 0x00	; 0
     642:	30 91 16 02 	lds	r19, 0x0216	; 0x800216 <xJoyHIGH>
     646:	82 2b       	or	r24, r18
     648:	93 2b       	or	r25, r19
     64a:	90 93 25 02 	sts	0x0225, r25	; 0x800225 <xJoy+0x1>
     64e:	80 93 24 02 	sts	0x0224, r24	; 0x800224 <xJoy>
     652:	61 e0       	ldi	r22, 0x01	; 1
     654:	86 e0       	ldi	r24, 0x06	; 6
     656:	90 e0       	ldi	r25, 0x00	; 0
     658:	b7 d3       	rcall	.+1902   	; 0xdc8 <uart_get_byte>
     65a:	90 e0       	ldi	r25, 0x00	; 0
     65c:	90 93 13 02 	sts	0x0213, r25	; 0x800213 <yJoyHIGH+0x1>
     660:	80 93 12 02 	sts	0x0212, r24	; 0x800212 <yJoyHIGH>
     664:	61 e0       	ldi	r22, 0x01	; 1
     666:	87 e0       	ldi	r24, 0x07	; 7
     668:	90 e0       	ldi	r25, 0x00	; 0
     66a:	ae d3       	rcall	.+1884   	; 0xdc8 <uart_get_byte>
     66c:	90 e0       	ldi	r25, 0x00	; 0
     66e:	90 93 11 02 	sts	0x0211, r25	; 0x800211 <yJoyLOW+0x1>
     672:	80 93 10 02 	sts	0x0210, r24	; 0x800210 <yJoyLOW>
     676:	20 e0       	ldi	r18, 0x00	; 0
     678:	30 e0       	ldi	r19, 0x00	; 0
     67a:	30 91 12 02 	lds	r19, 0x0212	; 0x800212 <yJoyHIGH>
     67e:	82 2b       	or	r24, r18
     680:	93 2b       	or	r25, r19
     682:	90 93 23 02 	sts	0x0223, r25	; 0x800223 <yJoy+0x1>
     686:	80 93 22 02 	sts	0x0222, r24	; 0x800222 <yJoy>
     68a:	61 e0       	ldi	r22, 0x01	; 1
     68c:	88 e0       	ldi	r24, 0x08	; 8
     68e:	90 e0       	ldi	r25, 0x00	; 0
     690:	9b d3       	rcall	.+1846   	; 0xdc8 <uart_get_byte>
     692:	90 e0       	ldi	r25, 0x00	; 0
     694:	90 93 0b 02 	sts	0x020B, r25	; 0x80020b <LeftJoyButton+0x1>
     698:	80 93 0a 02 	sts	0x020A, r24	; 0x80020a <LeftJoyButton>
     69c:	81 e0       	ldi	r24, 0x01	; 1
     69e:	b6 d3       	rcall	.+1900   	; 0xe0c <uart_reset_receive>
     6a0:	80 91 26 02 	lds	r24, 0x0226	; 0x800226 <radiusRoomba>
     6a4:	90 91 27 02 	lds	r25, 0x0227	; 0x800227 <radiusRoomba+0x1>
     6a8:	84 31       	cpi	r24, 0x14	; 20
     6aa:	91 05       	cpc	r25, r1
     6ac:	6c f4       	brge	.+26     	; 0x6c8 <__LOCK_REGION_LENGTH__+0x2c8>
     6ae:	8d 3e       	cpi	r24, 0xED	; 237
     6b0:	4f ef       	ldi	r20, 0xFF	; 255
     6b2:	94 07       	cpc	r25, r20
     6b4:	a4 f0       	brlt	.+40     	; 0x6de <__LOCK_REGION_LENGTH__+0x2de>
     6b6:	10 92 27 02 	sts	0x0227, r1	; 0x800227 <radiusRoomba+0x1>
     6ba:	10 92 26 02 	sts	0x0226, r1	; 0x800226 <radiusRoomba>
     6be:	10 92 29 02 	sts	0x0229, r1	; 0x800229 <speedRoomba+0x1>
     6c2:	10 92 28 02 	sts	0x0228, r1	; 0x800228 <speedRoomba>
     6c6:	1a c0       	rjmp	.+52     	; 0x6fc <__LOCK_REGION_LENGTH__+0x2fc>
     6c8:	44 97       	sbiw	r24, 0x14	; 20
     6ca:	c1 f0       	breq	.+48     	; 0x6fc <__LOCK_REGION_LENGTH__+0x2fc>
     6cc:	8e e5       	ldi	r24, 0x5E	; 94
     6ce:	91 e0       	ldi	r25, 0x01	; 1
     6d0:	90 93 29 02 	sts	0x0229, r25	; 0x800229 <speedRoomba+0x1>
     6d4:	80 93 28 02 	sts	0x0228, r24	; 0x800228 <speedRoomba>
     6d8:	81 e0       	ldi	r24, 0x01	; 1
     6da:	90 e0       	ldi	r25, 0x00	; 0
     6dc:	0b c0       	rjmp	.+22     	; 0x6f4 <__LOCK_REGION_LENGTH__+0x2f4>
     6de:	8c 3e       	cpi	r24, 0xEC	; 236
     6e0:	9f 4f       	sbci	r25, 0xFF	; 255
     6e2:	64 f4       	brge	.+24     	; 0x6fc <__LOCK_REGION_LENGTH__+0x2fc>
     6e4:	8e e5       	ldi	r24, 0x5E	; 94
     6e6:	91 e0       	ldi	r25, 0x01	; 1
     6e8:	90 93 29 02 	sts	0x0229, r25	; 0x800229 <speedRoomba+0x1>
     6ec:	80 93 28 02 	sts	0x0228, r24	; 0x800228 <speedRoomba>
     6f0:	8f ef       	ldi	r24, 0xFF	; 255
     6f2:	9f ef       	ldi	r25, 0xFF	; 255
     6f4:	90 93 27 02 	sts	0x0227, r25	; 0x800227 <radiusRoomba+0x1>
     6f8:	80 93 26 02 	sts	0x0226, r24	; 0x800226 <radiusRoomba>
     6fc:	60 91 26 02 	lds	r22, 0x0226	; 0x800226 <radiusRoomba>
     700:	70 91 27 02 	lds	r23, 0x0227	; 0x800227 <radiusRoomba+0x1>
     704:	80 91 28 02 	lds	r24, 0x0228	; 0x800228 <speedRoomba>
     708:	90 91 29 02 	lds	r25, 0x0229	; 0x800229 <speedRoomba+0x1>
     70c:	ba d0       	rcall	.+372    	; 0x882 <Roomba_Drive>
     70e:	80 91 24 02 	lds	r24, 0x0224	; 0x800224 <xJoy>
     712:	90 91 25 02 	lds	r25, 0x0225	; 0x800225 <xJoy+0x1>
     716:	87 39       	cpi	r24, 0x97	; 151
     718:	91 05       	cpc	r25, r1
     71a:	1c f0       	brlt	.+6      	; 0x722 <__LOCK_REGION_LENGTH__+0x322>
     71c:	8d ef       	ldi	r24, 0xFD	; 253
     71e:	9f ef       	ldi	r25, 0xFF	; 255
     720:	05 c0       	rjmp	.+10     	; 0x72c <__LOCK_REGION_LENGTH__+0x32c>
     722:	8d 37       	cpi	r24, 0x7D	; 125
     724:	91 05       	cpc	r25, r1
     726:	1c f4       	brge	.+6      	; 0x72e <__LOCK_REGION_LENGTH__+0x32e>
     728:	83 e0       	ldi	r24, 0x03	; 3
     72a:	90 e0       	ldi	r25, 0x00	; 0
     72c:	4f d2       	rcall	.+1182   	; 0xbcc <adjust_pan_angle>
     72e:	80 91 22 02 	lds	r24, 0x0222	; 0x800222 <yJoy>
     732:	90 91 23 02 	lds	r25, 0x0223	; 0x800223 <yJoy+0x1>
     736:	8d 37       	cpi	r24, 0x7D	; 125
     738:	91 05       	cpc	r25, r1
     73a:	1c f4       	brge	.+6      	; 0x742 <__LOCK_REGION_LENGTH__+0x342>
     73c:	83 e0       	ldi	r24, 0x03	; 3
     73e:	90 e0       	ldi	r25, 0x00	; 0
     740:	05 c0       	rjmp	.+10     	; 0x74c <__LOCK_REGION_LENGTH__+0x34c>
     742:	87 39       	cpi	r24, 0x97	; 151
     744:	91 05       	cpc	r25, r1
     746:	1c f0       	brlt	.+6      	; 0x74e <__LOCK_REGION_LENGTH__+0x34e>
     748:	8d ef       	ldi	r24, 0xFD	; 253
     74a:	9f ef       	ldi	r25, 0xFF	; 255
     74c:	9d d2       	rcall	.+1338   	; 0xc88 <adjust_tilt_angle>
     74e:	80 91 0a 02 	lds	r24, 0x020A	; 0x80020a <LeftJoyButton>
     752:	90 91 0b 02 	lds	r25, 0x020B	; 0x80020b <LeftJoyButton+0x1>
     756:	01 97       	sbiw	r24, 0x01	; 1
     758:	11 f4       	brne	.+4      	; 0x75e <__LOCK_REGION_LENGTH__+0x35e>
     75a:	2d 9a       	sbi	0x05, 5	; 5
     75c:	08 95       	ret
     75e:	2d 98       	cbi	0x05, 5	; 5
     760:	08 95       	ret
     762:	82 30       	cpi	r24, 0x02	; 2
     764:	91 05       	cpc	r25, r1
     766:	31 f4       	brne	.+12     	; 0x774 <__LOCK_REGION_LENGTH__+0x374>
     768:	21 dd       	rcall	.-1470   	; 0x1ac <light_sense>
     76a:	60 e0       	ldi	r22, 0x00	; 0
     76c:	70 e0       	ldi	r23, 0x00	; 0
     76e:	80 e7       	ldi	r24, 0x70	; 112
     770:	9e ef       	ldi	r25, 0xFE	; 254
     772:	06 c0       	rjmp	.+12     	; 0x780 <__LOCK_REGION_LENGTH__+0x380>
     774:	03 97       	sbiw	r24, 0x03	; 3
     776:	29 f4       	brne	.+10     	; 0x782 <__LOCK_REGION_LENGTH__+0x382>
     778:	60 e0       	ldi	r22, 0x00	; 0
     77a:	70 e0       	ldi	r23, 0x00	; 0
     77c:	80 e0       	ldi	r24, 0x00	; 0
     77e:	90 e0       	ldi	r25, 0x00	; 0
     780:	80 c0       	rjmp	.+256    	; 0x882 <Roomba_Drive>
     782:	08 95       	ret

00000784 <initADC>:
     784:	87 b1       	in	r24, 0x07	; 7
     786:	80 7f       	andi	r24, 0xF0	; 240
     788:	87 b9       	out	0x07, r24	; 7
     78a:	ea e7       	ldi	r30, 0x7A	; 122
     78c:	f0 e0       	ldi	r31, 0x00	; 0
     78e:	80 81       	ld	r24, Z
     790:	87 60       	ori	r24, 0x07	; 7
     792:	80 83       	st	Z, r24
     794:	ac e7       	ldi	r26, 0x7C	; 124
     796:	b0 e0       	ldi	r27, 0x00	; 0
     798:	8c 91       	ld	r24, X
     79a:	80 64       	ori	r24, 0x40	; 64
     79c:	8c 93       	st	X, r24
     79e:	8c 91       	ld	r24, X
     7a0:	80 62       	ori	r24, 0x20	; 32
     7a2:	8c 93       	st	X, r24
     7a4:	80 81       	ld	r24, Z
     7a6:	80 68       	ori	r24, 0x80	; 128
     7a8:	80 83       	st	Z, r24
     7aa:	80 81       	ld	r24, Z
     7ac:	80 64       	ori	r24, 0x40	; 64
     7ae:	80 83       	st	Z, r24
     7b0:	08 95       	ret

000007b2 <main>:
     7b2:	9d 9a       	sbi	0x13, 5	; 19
     7b4:	e1 e0       	ldi	r30, 0x01	; 1
     7b6:	f1 e0       	ldi	r31, 0x01	; 1
     7b8:	80 81       	ld	r24, Z
     7ba:	80 62       	ori	r24, 0x20	; 32
     7bc:	80 83       	st	Z, r24
     7be:	25 9a       	sbi	0x04, 5	; 4
     7c0:	7a d0       	rcall	.+244    	; 0x8b6 <init_timer>
     7c2:	b1 dc       	rcall	.-1694   	; 0x126 <init_LED_C6>
     7c4:	df df       	rcall	.-66     	; 0x784 <initADC>
     7c6:	ce d1       	rcall	.+924    	; 0xb64 <init_servos>
     7c8:	78 94       	sei
     7ca:	61 e0       	ldi	r22, 0x01	; 1
     7cc:	80 e0       	ldi	r24, 0x00	; 0
     7ce:	ba d2       	rcall	.+1396   	; 0xd44 <uart_init>
     7d0:	8a d0       	rcall	.+276    	; 0x8e6 <Scheduler_Init>
     7d2:	0c d0       	rcall	.+24     	; 0x7ec <Roomba_Init>
     7d4:	21 e0       	ldi	r18, 0x01	; 1
     7d6:	43 e3       	ldi	r20, 0x33	; 51
     7d8:	51 e0       	ldi	r21, 0x01	; 1
     7da:	6a e0       	ldi	r22, 0x0A	; 10
     7dc:	70 e0       	ldi	r23, 0x00	; 0
     7de:	80 e0       	ldi	r24, 0x00	; 0
     7e0:	90 e0       	ldi	r25, 0x00	; 0
     7e2:	8e d0       	rcall	.+284    	; 0x900 <Scheduler_StartPeriodicTask>
     7e4:	b6 d1       	rcall	.+876    	; 0xb52 <Scheduler_Start>
     7e6:	80 e0       	ldi	r24, 0x00	; 0
     7e8:	90 e0       	ldi	r25, 0x00	; 0
     7ea:	08 95       	ret

000007ec <Roomba_Init>:
     7ec:	3d 9a       	sbi	0x07, 5	; 7
     7ee:	45 98       	cbi	0x08, 5	; 8
     7f0:	2f e9       	ldi	r18, 0x9F	; 159
     7f2:	86 e8       	ldi	r24, 0x86	; 134
     7f4:	91 e0       	ldi	r25, 0x01	; 1
     7f6:	21 50       	subi	r18, 0x01	; 1
     7f8:	80 40       	sbci	r24, 0x00	; 0
     7fa:	90 40       	sbci	r25, 0x00	; 0
     7fc:	e1 f7       	brne	.-8      	; 0x7f6 <Roomba_Init+0xa>
     7fe:	00 c0       	rjmp	.+0      	; 0x800 <Roomba_Init+0x14>
     800:	00 00       	nop
     802:	45 9a       	sbi	0x08, 5	; 8
     804:	ef e7       	ldi	r30, 0x7F	; 127
     806:	fa e1       	ldi	r31, 0x1A	; 26
     808:	26 e0       	ldi	r18, 0x06	; 6
     80a:	e1 50       	subi	r30, 0x01	; 1
     80c:	f0 40       	sbci	r31, 0x00	; 0
     80e:	20 40       	sbci	r18, 0x00	; 0
     810:	e1 f7       	brne	.-8      	; 0x80a <Roomba_Init+0x1e>
     812:	00 c0       	rjmp	.+0      	; 0x814 <Roomba_Init+0x28>
     814:	00 00       	nop
     816:	83 e0       	ldi	r24, 0x03	; 3
     818:	45 98       	cbi	0x08, 5	; 8
     81a:	e3 ed       	ldi	r30, 0xD3	; 211
     81c:	f0 e3       	ldi	r31, 0x30	; 48
     81e:	31 97       	sbiw	r30, 0x01	; 1
     820:	f1 f7       	brne	.-4      	; 0x81e <Roomba_Init+0x32>
     822:	00 c0       	rjmp	.+0      	; 0x824 <Roomba_Init+0x38>
     824:	00 00       	nop
     826:	45 9a       	sbi	0x08, 5	; 8
     828:	e3 ed       	ldi	r30, 0xD3	; 211
     82a:	f0 e3       	ldi	r31, 0x30	; 48
     82c:	31 97       	sbiw	r30, 0x01	; 1
     82e:	f1 f7       	brne	.-4      	; 0x82c <Roomba_Init+0x40>
     830:	00 c0       	rjmp	.+0      	; 0x832 <Roomba_Init+0x46>
     832:	00 00       	nop
     834:	81 50       	subi	r24, 0x01	; 1
     836:	81 f7       	brne	.-32     	; 0x818 <Roomba_Init+0x2c>
     838:	60 e0       	ldi	r22, 0x00	; 0
     83a:	81 e0       	ldi	r24, 0x01	; 1
     83c:	83 d2       	rcall	.+1286   	; 0xd44 <uart_init>
     83e:	60 e0       	ldi	r22, 0x00	; 0
     840:	80 e8       	ldi	r24, 0x80	; 128
     842:	af d2       	rcall	.+1374   	; 0xda2 <uart_putchar>
     844:	87 e8       	ldi	r24, 0x87	; 135
     846:	93 e1       	ldi	r25, 0x13	; 19
     848:	01 97       	sbiw	r24, 0x01	; 1
     84a:	f1 f7       	brne	.-4      	; 0x848 <Roomba_Init+0x5c>
     84c:	00 c0       	rjmp	.+0      	; 0x84e <Roomba_Init+0x62>
     84e:	00 00       	nop
     850:	60 e0       	ldi	r22, 0x00	; 0
     852:	81 e8       	ldi	r24, 0x81	; 129
     854:	a6 d2       	rcall	.+1356   	; 0xda2 <uart_putchar>
     856:	60 e0       	ldi	r22, 0x00	; 0
     858:	89 e0       	ldi	r24, 0x09	; 9
     85a:	a3 d2       	rcall	.+1350   	; 0xda2 <uart_putchar>
     85c:	e7 ea       	ldi	r30, 0xA7	; 167
     85e:	f1 e6       	ldi	r31, 0x61	; 97
     860:	31 97       	sbiw	r30, 0x01	; 1
     862:	f1 f7       	brne	.-4      	; 0x860 <Roomba_Init+0x74>
     864:	00 c0       	rjmp	.+0      	; 0x866 <Roomba_Init+0x7a>
     866:	00 00       	nop
     868:	60 e0       	ldi	r22, 0x00	; 0
     86a:	82 e0       	ldi	r24, 0x02	; 2
     86c:	6b d2       	rcall	.+1238   	; 0xd44 <uart_init>
     86e:	60 e0       	ldi	r22, 0x00	; 0
     870:	82 e8       	ldi	r24, 0x82	; 130
     872:	97 d2       	rcall	.+1326   	; 0xda2 <uart_putchar>
     874:	87 e8       	ldi	r24, 0x87	; 135
     876:	93 e1       	ldi	r25, 0x13	; 19
     878:	01 97       	sbiw	r24, 0x01	; 1
     87a:	f1 f7       	brne	.-4      	; 0x878 <Roomba_Init+0x8c>
     87c:	00 c0       	rjmp	.+0      	; 0x87e <Roomba_Init+0x92>
     87e:	00 00       	nop
     880:	08 95       	ret

00000882 <Roomba_Drive>:
     882:	0f 93       	push	r16
     884:	1f 93       	push	r17
     886:	cf 93       	push	r28
     888:	df 93       	push	r29
     88a:	18 2f       	mov	r17, r24
     88c:	09 2f       	mov	r16, r25
     88e:	eb 01       	movw	r28, r22
     890:	60 e0       	ldi	r22, 0x00	; 0
     892:	89 e8       	ldi	r24, 0x89	; 137
     894:	86 d2       	rcall	.+1292   	; 0xda2 <uart_putchar>
     896:	60 e0       	ldi	r22, 0x00	; 0
     898:	80 2f       	mov	r24, r16
     89a:	83 d2       	rcall	.+1286   	; 0xda2 <uart_putchar>
     89c:	60 e0       	ldi	r22, 0x00	; 0
     89e:	81 2f       	mov	r24, r17
     8a0:	80 d2       	rcall	.+1280   	; 0xda2 <uart_putchar>
     8a2:	60 e0       	ldi	r22, 0x00	; 0
     8a4:	8d 2f       	mov	r24, r29
     8a6:	7d d2       	rcall	.+1274   	; 0xda2 <uart_putchar>
     8a8:	60 e0       	ldi	r22, 0x00	; 0
     8aa:	8c 2f       	mov	r24, r28
     8ac:	df 91       	pop	r29
     8ae:	cf 91       	pop	r28
     8b0:	1f 91       	pop	r17
     8b2:	0f 91       	pop	r16
     8b4:	76 c2       	rjmp	.+1260   	; 0xda2 <uart_putchar>

000008b6 <init_timer>:
     8b6:	14 bc       	out	0x24, r1	; 36
     8b8:	85 b5       	in	r24, 0x25	; 37
     8ba:	85 60       	ori	r24, 0x05	; 5
     8bc:	85 bd       	out	0x25, r24	; 37
     8be:	16 bc       	out	0x26, r1	; 38
     8c0:	10 92 b4 02 	sts	0x02B4, r1	; 0x8002b4 <current_time+0x1>
     8c4:	10 92 b3 02 	sts	0x02B3, r1	; 0x8002b3 <current_time>
     8c8:	08 95       	ret

000008ca <timer_testing>:
     8ca:	86 b5       	in	r24, 0x26	; 38
     8cc:	8c 39       	cpi	r24, 0x9C	; 156
     8ce:	50 f0       	brcs	.+20     	; 0x8e4 <timer_testing+0x1a>
     8d0:	80 91 b3 02 	lds	r24, 0x02B3	; 0x8002b3 <current_time>
     8d4:	90 91 b4 02 	lds	r25, 0x02B4	; 0x8002b4 <current_time+0x1>
     8d8:	01 96       	adiw	r24, 0x01	; 1
     8da:	90 93 b4 02 	sts	0x02B4, r25	; 0x8002b4 <current_time+0x1>
     8de:	80 93 b3 02 	sts	0x02B3, r24	; 0x8002b3 <current_time>
     8e2:	16 bc       	out	0x26, r1	; 38
     8e4:	08 95       	ret

000008e6 <Scheduler_Init>:
     8e6:	80 91 b3 02 	lds	r24, 0x02B3	; 0x8002b3 <current_time>
     8ea:	90 91 b4 02 	lds	r25, 0x02B4	; 0x8002b4 <current_time+0x1>
     8ee:	90 93 72 02 	sts	0x0272, r25	; 0x800272 <last_runtime_periodic+0x1>
     8f2:	80 93 71 02 	sts	0x0271, r24	; 0x800271 <last_runtime_periodic>
     8f6:	90 93 b6 02 	sts	0x02B6, r25	; 0x8002b6 <last_runtime_sporadic+0x1>
     8fa:	80 93 b5 02 	sts	0x02B5, r24	; 0x8002b5 <last_runtime_sporadic>
     8fe:	08 95       	ret

00000900 <Scheduler_StartPeriodicTask>:
     900:	dc 01       	movw	r26, r24
     902:	90 91 2e 02 	lds	r25, 0x022E	; 0x80022e <id.1972>
     906:	98 30       	cpi	r25, 0x08	; 8
     908:	90 f4       	brcc	.+36     	; 0x92e <Scheduler_StartPeriodicTask+0x2e>
     90a:	88 e0       	ldi	r24, 0x08	; 8
     90c:	98 9f       	mul	r25, r24
     90e:	f0 01       	movw	r30, r0
     910:	11 24       	eor	r1, r1
     912:	ed 58       	subi	r30, 0x8D	; 141
     914:	fd 4f       	sbci	r31, 0xFD	; 253
     916:	b3 83       	std	Z+3, r27	; 0x03
     918:	a2 83       	std	Z+2, r26	; 0x02
     91a:	71 83       	std	Z+1, r23	; 0x01
     91c:	60 83       	st	Z, r22
     91e:	81 e0       	ldi	r24, 0x01	; 1
     920:	84 83       	std	Z+4, r24	; 0x04
     922:	56 83       	std	Z+6, r21	; 0x06
     924:	45 83       	std	Z+5, r20	; 0x05
     926:	27 83       	std	Z+7, r18	; 0x07
     928:	9f 5f       	subi	r25, 0xFF	; 255
     92a:	90 93 2e 02 	sts	0x022E, r25	; 0x80022e <id.1972>
     92e:	08 95       	ret

00000930 <Scheduler_DispatchPeriodicTask>:
     930:	7f 92       	push	r7
     932:	8f 92       	push	r8
     934:	9f 92       	push	r9
     936:	af 92       	push	r10
     938:	bf 92       	push	r11
     93a:	cf 92       	push	r12
     93c:	df 92       	push	r13
     93e:	ef 92       	push	r14
     940:	ff 92       	push	r15
     942:	0f 93       	push	r16
     944:	1f 93       	push	r17
     946:	cf 93       	push	r28
     948:	df 93       	push	r29
     94a:	80 91 b3 02 	lds	r24, 0x02B3	; 0x8002b3 <current_time>
     94e:	90 91 b4 02 	lds	r25, 0x02B4	; 0x8002b4 <current_time+0x1>
     952:	20 91 71 02 	lds	r18, 0x0271	; 0x800271 <last_runtime_periodic>
     956:	30 91 72 02 	lds	r19, 0x0272	; 0x800272 <last_runtime_periodic+0x1>
     95a:	6c 01       	movw	r12, r24
     95c:	c2 1a       	sub	r12, r18
     95e:	d3 0a       	sbc	r13, r19
     960:	90 93 72 02 	sts	0x0272, r25	; 0x800272 <last_runtime_periodic+0x1>
     964:	80 93 71 02 	sts	0x0271, r24	; 0x800271 <last_runtime_periodic>
     968:	c3 e7       	ldi	r28, 0x73	; 115
     96a:	d2 e0       	ldi	r29, 0x02	; 2
     96c:	aa 24       	eor	r10, r10
     96e:	aa 94       	dec	r10
     970:	ba 2c       	mov	r11, r10
     972:	e1 2c       	mov	r14, r1
     974:	f1 2c       	mov	r15, r1
     976:	8c 81       	ldd	r24, Y+4	; 0x04
     978:	88 23       	and	r24, r24
     97a:	39 f1       	breq	.+78     	; 0x9ca <Scheduler_DispatchPeriodicTask+0x9a>
     97c:	0a 81       	ldd	r16, Y+2	; 0x02
     97e:	1b 81       	ldd	r17, Y+3	; 0x03
     980:	0c 19       	sub	r16, r12
     982:	1d 09       	sbc	r17, r13
     984:	1b 83       	std	Y+3, r17	; 0x03
     986:	0a 83       	std	Y+2, r16	; 0x02
     988:	01 15       	cp	r16, r1
     98a:	11 05       	cpc	r17, r1
     98c:	59 f4       	brne	.+22     	; 0x9a4 <Scheduler_DispatchPeriodicTask+0x74>
     98e:	e1 14       	cp	r14, r1
     990:	f1 04       	cpc	r15, r1
     992:	c9 f4       	brne	.+50     	; 0x9c6 <Scheduler_DispatchPeriodicTask+0x96>
     994:	ed 80       	ldd	r14, Y+5	; 0x05
     996:	fe 80       	ldd	r15, Y+6	; 0x06
     998:	7f 80       	ldd	r7, Y+7	; 0x07
     99a:	88 81       	ld	r24, Y
     99c:	99 81       	ldd	r25, Y+1	; 0x01
     99e:	9b 83       	std	Y+3, r25	; 0x03
     9a0:	8a 83       	std	Y+2, r24	; 0x02
     9a2:	11 c0       	rjmp	.+34     	; 0x9c6 <Scheduler_DispatchPeriodicTask+0x96>
     9a4:	b5 01       	movw	r22, r10
     9a6:	80 e0       	ldi	r24, 0x00	; 0
     9a8:	90 e0       	ldi	r25, 0x00	; 0
     9aa:	c4 d2       	rcall	.+1416   	; 0xf34 <__floatunsisf>
     9ac:	4b 01       	movw	r8, r22
     9ae:	5c 01       	movw	r10, r24
     9b0:	b8 01       	movw	r22, r16
     9b2:	11 0f       	add	r17, r17
     9b4:	88 0b       	sbc	r24, r24
     9b6:	99 0b       	sbc	r25, r25
     9b8:	bd d2       	rcall	.+1402   	; 0xf34 <__floatunsisf>
     9ba:	a5 01       	movw	r20, r10
     9bc:	94 01       	movw	r18, r8
     9be:	f7 d2       	rcall	.+1518   	; 0xfae <fmin>
     9c0:	8d d2       	rcall	.+1306   	; 0xedc <__fixunssfsi>
     9c2:	5b 01       	movw	r10, r22
     9c4:	02 c0       	rjmp	.+4      	; 0x9ca <Scheduler_DispatchPeriodicTask+0x9a>
     9c6:	a1 2c       	mov	r10, r1
     9c8:	b1 2c       	mov	r11, r1
     9ca:	28 96       	adiw	r28, 0x08	; 8
     9cc:	82 e0       	ldi	r24, 0x02	; 2
     9ce:	c3 3b       	cpi	r28, 0xB3	; 179
     9d0:	d8 07       	cpc	r29, r24
     9d2:	89 f6       	brne	.-94     	; 0x976 <Scheduler_DispatchPeriodicTask+0x46>
     9d4:	e1 14       	cp	r14, r1
     9d6:	f1 04       	cpc	r15, r1
     9d8:	21 f0       	breq	.+8      	; 0x9e2 <Scheduler_DispatchPeriodicTask+0xb2>
     9da:	87 2d       	mov	r24, r7
     9dc:	90 e0       	ldi	r25, 0x00	; 0
     9de:	f7 01       	movw	r30, r14
     9e0:	19 95       	eicall
     9e2:	c5 01       	movw	r24, r10
     9e4:	df 91       	pop	r29
     9e6:	cf 91       	pop	r28
     9e8:	1f 91       	pop	r17
     9ea:	0f 91       	pop	r16
     9ec:	ff 90       	pop	r15
     9ee:	ef 90       	pop	r14
     9f0:	df 90       	pop	r13
     9f2:	cf 90       	pop	r12
     9f4:	bf 90       	pop	r11
     9f6:	af 90       	pop	r10
     9f8:	9f 90       	pop	r9
     9fa:	8f 90       	pop	r8
     9fc:	7f 90       	pop	r7
     9fe:	08 95       	ret

00000a00 <Scheduler_AddSporadicTask>:
     a00:	a7 eb       	ldi	r26, 0xB7	; 183
     a02:	b2 e0       	ldi	r27, 0x02	; 2
     a04:	e0 e0       	ldi	r30, 0x00	; 0
     a06:	f0 e0       	ldi	r31, 0x00	; 0
     a08:	12 96       	adiw	r26, 0x02	; 2
     a0a:	5c 91       	ld	r21, X
     a0c:	12 97       	sbiw	r26, 0x02	; 2
     a0e:	51 11       	cpse	r21, r1
     a10:	11 c0       	rjmp	.+34     	; 0xa34 <Scheduler_AddSporadicTask+0x34>
     a12:	53 e0       	ldi	r21, 0x03	; 3
     a14:	ee 0f       	add	r30, r30
     a16:	ff 1f       	adc	r31, r31
     a18:	5a 95       	dec	r21
     a1a:	e1 f7       	brne	.-8      	; 0xa14 <Scheduler_AddSporadicTask+0x14>
     a1c:	e9 54       	subi	r30, 0x49	; 73
     a1e:	fd 4f       	sbci	r31, 0xFD	; 253
     a20:	91 83       	std	Z+1, r25	; 0x01
     a22:	80 83       	st	Z, r24
     a24:	74 83       	std	Z+4, r23	; 0x04
     a26:	63 83       	std	Z+3, r22	; 0x03
     a28:	45 83       	std	Z+5, r20	; 0x05
     a2a:	81 e0       	ldi	r24, 0x01	; 1
     a2c:	82 83       	std	Z+2, r24	; 0x02
     a2e:	37 83       	std	Z+7, r19	; 0x07
     a30:	26 83       	std	Z+6, r18	; 0x06
     a32:	08 95       	ret
     a34:	31 96       	adiw	r30, 0x01	; 1
     a36:	18 96       	adiw	r26, 0x08	; 8
     a38:	e8 30       	cpi	r30, 0x08	; 8
     a3a:	f1 05       	cpc	r31, r1
     a3c:	29 f7       	brne	.-54     	; 0xa08 <Scheduler_AddSporadicTask+0x8>
     a3e:	08 95       	ret

00000a40 <Scheduler_DeleteSporadicTask>:
     a40:	e7 eb       	ldi	r30, 0xB7	; 183
     a42:	f2 e0       	ldi	r31, 0x02	; 2
     a44:	a7 ef       	ldi	r26, 0xF7	; 247
     a46:	b2 e0       	ldi	r27, 0x02	; 2
     a48:	23 81       	ldd	r18, Z+3	; 0x03
     a4a:	34 81       	ldd	r19, Z+4	; 0x04
     a4c:	28 17       	cp	r18, r24
     a4e:	39 07       	cpc	r19, r25
     a50:	11 f4       	brne	.+4      	; 0xa56 <Scheduler_DeleteSporadicTask+0x16>
     a52:	12 82       	std	Z+2, r1	; 0x02
     a54:	08 c0       	rjmp	.+16     	; 0xa66 <Scheduler_DeleteSporadicTask+0x26>
     a56:	11 96       	adiw	r26, 0x01	; 1
     a58:	2d 91       	ld	r18, X+
     a5a:	3c 91       	ld	r19, X
     a5c:	12 97       	sbiw	r26, 0x02	; 2
     a5e:	82 17       	cp	r24, r18
     a60:	93 07       	cpc	r25, r19
     a62:	09 f4       	brne	.+2      	; 0xa66 <Scheduler_DeleteSporadicTask+0x26>
     a64:	1c 92       	st	X, r1
     a66:	38 96       	adiw	r30, 0x08	; 8
     a68:	14 96       	adiw	r26, 0x04	; 4
     a6a:	22 e0       	ldi	r18, 0x02	; 2
     a6c:	e7 3f       	cpi	r30, 0xF7	; 247
     a6e:	f2 07       	cpc	r31, r18
     a70:	59 f7       	brne	.-42     	; 0xa48 <Scheduler_DeleteSporadicTask+0x8>
     a72:	08 95       	ret

00000a74 <Scheduler_DispatchNonTimeCriticalSporadicTask>:
     a74:	40 91 b3 02 	lds	r20, 0x02B3	; 0x8002b3 <current_time>
     a78:	50 91 b4 02 	lds	r21, 0x02B4	; 0x8002b4 <current_time+0x1>
     a7c:	50 93 b6 02 	sts	0x02B6, r21	; 0x8002b6 <last_runtime_sporadic+0x1>
     a80:	40 93 b5 02 	sts	0x02B5, r20	; 0x8002b5 <last_runtime_sporadic>
     a84:	a7 ef       	ldi	r26, 0xF7	; 247
     a86:	b2 e0       	ldi	r27, 0x02	; 2
     a88:	47 e1       	ldi	r20, 0x17	; 23
     a8a:	53 e0       	ldi	r21, 0x03	; 3
     a8c:	e0 e0       	ldi	r30, 0x00	; 0
     a8e:	f0 e0       	ldi	r31, 0x00	; 0
     a90:	3c 91       	ld	r19, X
     a92:	33 23       	and	r19, r19
     a94:	51 f0       	breq	.+20     	; 0xaaa <Scheduler_DispatchNonTimeCriticalSporadicTask+0x36>
     a96:	00 97       	sbiw	r24, 0x00	; 0
     a98:	41 f0       	breq	.+16     	; 0xaaa <Scheduler_DispatchNonTimeCriticalSporadicTask+0x36>
     a9a:	11 96       	adiw	r26, 0x01	; 1
     a9c:	ed 91       	ld	r30, X+
     a9e:	fc 91       	ld	r31, X
     aa0:	12 97       	sbiw	r26, 0x02	; 2
     aa2:	13 96       	adiw	r26, 0x03	; 3
     aa4:	2c 91       	ld	r18, X
     aa6:	13 97       	sbiw	r26, 0x03	; 3
     aa8:	1c 92       	st	X, r1
     aaa:	14 96       	adiw	r26, 0x04	; 4
     aac:	4a 17       	cp	r20, r26
     aae:	5b 07       	cpc	r21, r27
     ab0:	79 f7       	brne	.-34     	; 0xa90 <Scheduler_DispatchNonTimeCriticalSporadicTask+0x1c>
     ab2:	30 97       	sbiw	r30, 0x00	; 0
     ab4:	29 f0       	breq	.+10     	; 0xac0 <Scheduler_DispatchNonTimeCriticalSporadicTask+0x4c>
     ab6:	f8 94       	cli
     ab8:	82 2f       	mov	r24, r18
     aba:	90 e0       	ldi	r25, 0x00	; 0
     abc:	19 95       	eicall
     abe:	78 94       	sei
     ac0:	08 95       	ret

00000ac2 <Scheduler_DispatchSporadicTask>:
     ac2:	cf 93       	push	r28
     ac4:	df 93       	push	r29
     ac6:	20 91 b3 02 	lds	r18, 0x02B3	; 0x8002b3 <current_time>
     aca:	30 91 b4 02 	lds	r19, 0x02B4	; 0x8002b4 <current_time+0x1>
     ace:	60 91 b5 02 	lds	r22, 0x02B5	; 0x8002b5 <last_runtime_sporadic>
     ad2:	70 91 b6 02 	lds	r23, 0x02B6	; 0x8002b6 <last_runtime_sporadic+0x1>
     ad6:	e9 01       	movw	r28, r18
     ad8:	c6 1b       	sub	r28, r22
     ada:	d7 0b       	sbc	r29, r23
     adc:	30 93 b6 02 	sts	0x02B6, r19	; 0x8002b6 <last_runtime_sporadic+0x1>
     ae0:	20 93 b5 02 	sts	0x02B5, r18	; 0x8002b5 <last_runtime_sporadic>
     ae4:	a7 eb       	ldi	r26, 0xB7	; 183
     ae6:	b2 e0       	ldi	r27, 0x02	; 2
     ae8:	67 ef       	ldi	r22, 0xF7	; 247
     aea:	72 e0       	ldi	r23, 0x02	; 2
     aec:	e0 e0       	ldi	r30, 0x00	; 0
     aee:	f0 e0       	ldi	r31, 0x00	; 0
     af0:	12 96       	adiw	r26, 0x02	; 2
     af2:	2c 91       	ld	r18, X
     af4:	12 97       	sbiw	r26, 0x02	; 2
     af6:	22 23       	and	r18, r18
     af8:	f1 f0       	breq	.+60     	; 0xb36 <Scheduler_DispatchSporadicTask+0x74>
     afa:	00 97       	sbiw	r24, 0x00	; 0
     afc:	e1 f0       	breq	.+56     	; 0xb36 <Scheduler_DispatchSporadicTask+0x74>
     afe:	16 96       	adiw	r26, 0x06	; 6
     b00:	2d 91       	ld	r18, X+
     b02:	3c 91       	ld	r19, X
     b04:	17 97       	sbiw	r26, 0x07	; 7
     b06:	28 17       	cp	r18, r24
     b08:	39 07       	cpc	r19, r25
     b0a:	a8 f4       	brcc	.+42     	; 0xb36 <Scheduler_DispatchSporadicTask+0x74>
     b0c:	2d 91       	ld	r18, X+
     b0e:	3c 91       	ld	r19, X
     b10:	11 97       	sbiw	r26, 0x01	; 1
     b12:	2c 1b       	sub	r18, r28
     b14:	3d 0b       	sbc	r19, r29
     b16:	11 96       	adiw	r26, 0x01	; 1
     b18:	3c 93       	st	X, r19
     b1a:	2e 93       	st	-X, r18
     b1c:	12 16       	cp	r1, r18
     b1e:	13 06       	cpc	r1, r19
     b20:	54 f0       	brlt	.+20     	; 0xb36 <Scheduler_DispatchSporadicTask+0x74>
     b22:	13 96       	adiw	r26, 0x03	; 3
     b24:	ed 91       	ld	r30, X+
     b26:	fc 91       	ld	r31, X
     b28:	14 97       	sbiw	r26, 0x04	; 4
     b2a:	15 96       	adiw	r26, 0x05	; 5
     b2c:	4c 91       	ld	r20, X
     b2e:	15 97       	sbiw	r26, 0x05	; 5
     b30:	12 96       	adiw	r26, 0x02	; 2
     b32:	1c 92       	st	X, r1
     b34:	12 97       	sbiw	r26, 0x02	; 2
     b36:	18 96       	adiw	r26, 0x08	; 8
     b38:	6a 17       	cp	r22, r26
     b3a:	7b 07       	cpc	r23, r27
     b3c:	c9 f6       	brne	.-78     	; 0xaf0 <Scheduler_DispatchSporadicTask+0x2e>
     b3e:	30 97       	sbiw	r30, 0x00	; 0
     b40:	29 f0       	breq	.+10     	; 0xb4c <Scheduler_DispatchSporadicTask+0x8a>
     b42:	f8 94       	cli
     b44:	84 2f       	mov	r24, r20
     b46:	90 e0       	ldi	r25, 0x00	; 0
     b48:	19 95       	eicall
     b4a:	78 94       	sei
     b4c:	df 91       	pop	r29
     b4e:	cf 91       	pop	r28
     b50:	08 95       	ret

00000b52 <Scheduler_Start>:
     b52:	bb de       	rcall	.-650    	; 0x8ca <timer_testing>
     b54:	ed de       	rcall	.-550    	; 0x930 <Scheduler_DispatchPeriodicTask>
     b56:	ec 01       	movw	r28, r24
     b58:	00 97       	sbiw	r24, 0x00	; 0
     b5a:	d9 f3       	breq	.-10     	; 0xb52 <Scheduler_Start>
     b5c:	b2 df       	rcall	.-156    	; 0xac2 <Scheduler_DispatchSporadicTask>
     b5e:	ce 01       	movw	r24, r28
     b60:	89 df       	rcall	.-238    	; 0xa74 <Scheduler_DispatchNonTimeCriticalSporadicTask>
     b62:	f7 cf       	rjmp	.-18     	; 0xb52 <Scheduler_Start>

00000b64 <init_servos>:
     b64:	8d b1       	in	r24, 0x0d	; 13
     b66:	80 63       	ori	r24, 0x30	; 48
     b68:	8d b9       	out	0x0d, r24	; 13
     b6a:	8e b1       	in	r24, 0x0e	; 14
     b6c:	8f 7c       	andi	r24, 0xCF	; 207
     b6e:	8e b9       	out	0x0e, r24	; 14
     b70:	10 92 95 00 	sts	0x0095, r1	; 0x800095 <__TEXT_REGION_LENGTH__+0x700095>
     b74:	10 92 94 00 	sts	0x0094, r1	; 0x800094 <__TEXT_REGION_LENGTH__+0x700094>
     b78:	a0 e9       	ldi	r26, 0x90	; 144
     b7a:	b0 e0       	ldi	r27, 0x00	; 0
     b7c:	1c 92       	st	X, r1
     b7e:	e1 e9       	ldi	r30, 0x91	; 145
     b80:	f0 e0       	ldi	r31, 0x00	; 0
     b82:	10 82       	st	Z, r1
     b84:	89 e2       	ldi	r24, 0x29	; 41
     b86:	8c 93       	st	X, r24
     b88:	80 81       	ld	r24, Z
     b8a:	83 61       	ori	r24, 0x13	; 19
     b8c:	80 83       	st	Z, r24
     b8e:	84 ec       	ldi	r24, 0xC4	; 196
     b90:	99 e0       	ldi	r25, 0x09	; 9
     b92:	90 93 99 00 	sts	0x0099, r25	; 0x800099 <__TEXT_REGION_LENGTH__+0x700099>
     b96:	80 93 98 00 	sts	0x0098, r24	; 0x800098 <__TEXT_REGION_LENGTH__+0x700098>
     b9a:	83 ec       	ldi	r24, 0xC3	; 195
     b9c:	90 e0       	ldi	r25, 0x00	; 0
     b9e:	90 93 1a 03 	sts	0x031A, r25	; 0x80031a <current_pan_angle+0x1>
     ba2:	80 93 19 03 	sts	0x0319, r24	; 0x800319 <current_pan_angle>
     ba6:	2b ea       	ldi	r18, 0xAB	; 171
     ba8:	30 e0       	ldi	r19, 0x00	; 0
     baa:	30 93 18 03 	sts	0x0318, r19	; 0x800318 <current_tilt_angle+0x1>
     bae:	20 93 17 03 	sts	0x0317, r18	; 0x800317 <current_tilt_angle>
     bb2:	90 93 9d 00 	sts	0x009D, r25	; 0x80009d <__TEXT_REGION_LENGTH__+0x70009d>
     bb6:	80 93 9c 00 	sts	0x009C, r24	; 0x80009c <__TEXT_REGION_LENGTH__+0x70009c>
     bba:	80 91 17 03 	lds	r24, 0x0317	; 0x800317 <current_tilt_angle>
     bbe:	90 91 18 03 	lds	r25, 0x0318	; 0x800318 <current_tilt_angle+0x1>
     bc2:	90 93 9b 00 	sts	0x009B, r25	; 0x80009b <__TEXT_REGION_LENGTH__+0x70009b>
     bc6:	80 93 9a 00 	sts	0x009A, r24	; 0x80009a <__TEXT_REGION_LENGTH__+0x70009a>
     bca:	08 95       	ret

00000bcc <adjust_pan_angle>:
     bcc:	cf 92       	push	r12
     bce:	df 92       	push	r13
     bd0:	ef 92       	push	r14
     bd2:	ff 92       	push	r15
     bd4:	cf 93       	push	r28
     bd6:	df 93       	push	r29
     bd8:	ec 01       	movw	r28, r24
     bda:	bc 01       	movw	r22, r24
     bdc:	99 0f       	add	r25, r25
     bde:	88 0b       	sbc	r24, r24
     be0:	99 0b       	sbc	r25, r25
     be2:	aa d1       	rcall	.+852    	; 0xf38 <__floatsisf>
     be4:	6b 01       	movw	r12, r22
     be6:	7c 01       	movw	r14, r24
     be8:	20 e0       	ldi	r18, 0x00	; 0
     bea:	30 e0       	ldi	r19, 0x00	; 0
     bec:	40 ea       	ldi	r20, 0xA0	; 160
     bee:	50 e4       	ldi	r21, 0x40	; 64
     bf0:	4a d2       	rcall	.+1172   	; 0x1086 <__gesf2>
     bf2:	18 16       	cp	r1, r24
     bf4:	64 f0       	brlt	.+24     	; 0xc0e <adjust_pan_angle+0x42>
     bf6:	20 e0       	ldi	r18, 0x00	; 0
     bf8:	30 e0       	ldi	r19, 0x00	; 0
     bfa:	40 ea       	ldi	r20, 0xA0	; 160
     bfc:	50 ec       	ldi	r21, 0xC0	; 192
     bfe:	c7 01       	movw	r24, r14
     c00:	b6 01       	movw	r22, r12
     c02:	63 d1       	rcall	.+710    	; 0xeca <__cmpsf2>
     c04:	87 ff       	sbrs	r24, 7
     c06:	05 c0       	rjmp	.+10     	; 0xc12 <adjust_pan_angle+0x46>
     c08:	cb ef       	ldi	r28, 0xFB	; 251
     c0a:	df ef       	ldi	r29, 0xFF	; 255
     c0c:	02 c0       	rjmp	.+4      	; 0xc12 <adjust_pan_angle+0x46>
     c0e:	c5 e0       	ldi	r28, 0x05	; 5
     c10:	d0 e0       	ldi	r29, 0x00	; 0
     c12:	80 91 19 03 	lds	r24, 0x0319	; 0x800319 <current_pan_angle>
     c16:	90 91 1a 03 	lds	r25, 0x031A	; 0x80031a <current_pan_angle+0x1>
     c1a:	c8 0f       	add	r28, r24
     c1c:	d9 1f       	adc	r29, r25
     c1e:	be 01       	movw	r22, r28
     c20:	0d 2e       	mov	r0, r29
     c22:	00 0c       	add	r0, r0
     c24:	88 0b       	sbc	r24, r24
     c26:	99 0b       	sbc	r25, r25
     c28:	87 d1       	rcall	.+782    	; 0xf38 <__floatsisf>
     c2a:	6b 01       	movw	r12, r22
     c2c:	7c 01       	movw	r14, r24
     c2e:	20 e0       	ldi	r18, 0x00	; 0
     c30:	30 e0       	ldi	r19, 0x00	; 0
     c32:	46 e9       	ldi	r20, 0x96	; 150
     c34:	53 e4       	ldi	r21, 0x43	; 67
     c36:	27 d2       	rcall	.+1102   	; 0x1086 <__gesf2>
     c38:	18 16       	cp	r1, r24
     c3a:	1c f4       	brge	.+6      	; 0xc42 <adjust_pan_angle+0x76>
     c3c:	8c e2       	ldi	r24, 0x2C	; 44
     c3e:	91 e0       	ldi	r25, 0x01	; 1
     c40:	10 c0       	rjmp	.+32     	; 0xc62 <adjust_pan_angle+0x96>
     c42:	20 e0       	ldi	r18, 0x00	; 0
     c44:	30 e0       	ldi	r19, 0x00	; 0
     c46:	4a e8       	ldi	r20, 0x8A	; 138
     c48:	52 e4       	ldi	r21, 0x42	; 66
     c4a:	c7 01       	movw	r24, r14
     c4c:	b6 01       	movw	r22, r12
     c4e:	3d d1       	rcall	.+634    	; 0xeca <__cmpsf2>
     c50:	87 fd       	sbrc	r24, 7
     c52:	05 c0       	rjmp	.+10     	; 0xc5e <adjust_pan_angle+0x92>
     c54:	d0 93 1a 03 	sts	0x031A, r29	; 0x80031a <current_pan_angle+0x1>
     c58:	c0 93 19 03 	sts	0x0319, r28	; 0x800319 <current_pan_angle>
     c5c:	06 c0       	rjmp	.+12     	; 0xc6a <adjust_pan_angle+0x9e>
     c5e:	85 e4       	ldi	r24, 0x45	; 69
     c60:	90 e0       	ldi	r25, 0x00	; 0
     c62:	90 93 1a 03 	sts	0x031A, r25	; 0x80031a <current_pan_angle+0x1>
     c66:	80 93 19 03 	sts	0x0319, r24	; 0x800319 <current_pan_angle>
     c6a:	80 91 19 03 	lds	r24, 0x0319	; 0x800319 <current_pan_angle>
     c6e:	90 91 1a 03 	lds	r25, 0x031A	; 0x80031a <current_pan_angle+0x1>
     c72:	90 93 9d 00 	sts	0x009D, r25	; 0x80009d <__TEXT_REGION_LENGTH__+0x70009d>
     c76:	80 93 9c 00 	sts	0x009C, r24	; 0x80009c <__TEXT_REGION_LENGTH__+0x70009c>
     c7a:	df 91       	pop	r29
     c7c:	cf 91       	pop	r28
     c7e:	ff 90       	pop	r15
     c80:	ef 90       	pop	r14
     c82:	df 90       	pop	r13
     c84:	cf 90       	pop	r12
     c86:	08 95       	ret

00000c88 <adjust_tilt_angle>:
     c88:	cf 92       	push	r12
     c8a:	df 92       	push	r13
     c8c:	ef 92       	push	r14
     c8e:	ff 92       	push	r15
     c90:	cf 93       	push	r28
     c92:	df 93       	push	r29
     c94:	ec 01       	movw	r28, r24
     c96:	bc 01       	movw	r22, r24
     c98:	99 0f       	add	r25, r25
     c9a:	88 0b       	sbc	r24, r24
     c9c:	99 0b       	sbc	r25, r25
     c9e:	4c d1       	rcall	.+664    	; 0xf38 <__floatsisf>
     ca0:	6b 01       	movw	r12, r22
     ca2:	7c 01       	movw	r14, r24
     ca4:	20 e0       	ldi	r18, 0x00	; 0
     ca6:	30 e0       	ldi	r19, 0x00	; 0
     ca8:	40 ea       	ldi	r20, 0xA0	; 160
     caa:	50 e4       	ldi	r21, 0x40	; 64
     cac:	ec d1       	rcall	.+984    	; 0x1086 <__gesf2>
     cae:	18 16       	cp	r1, r24
     cb0:	64 f0       	brlt	.+24     	; 0xcca <adjust_tilt_angle+0x42>
     cb2:	20 e0       	ldi	r18, 0x00	; 0
     cb4:	30 e0       	ldi	r19, 0x00	; 0
     cb6:	40 ea       	ldi	r20, 0xA0	; 160
     cb8:	50 ec       	ldi	r21, 0xC0	; 192
     cba:	c7 01       	movw	r24, r14
     cbc:	b6 01       	movw	r22, r12
     cbe:	05 d1       	rcall	.+522    	; 0xeca <__cmpsf2>
     cc0:	87 ff       	sbrs	r24, 7
     cc2:	05 c0       	rjmp	.+10     	; 0xcce <adjust_tilt_angle+0x46>
     cc4:	cb ef       	ldi	r28, 0xFB	; 251
     cc6:	df ef       	ldi	r29, 0xFF	; 255
     cc8:	02 c0       	rjmp	.+4      	; 0xcce <adjust_tilt_angle+0x46>
     cca:	c5 e0       	ldi	r28, 0x05	; 5
     ccc:	d0 e0       	ldi	r29, 0x00	; 0
     cce:	80 91 17 03 	lds	r24, 0x0317	; 0x800317 <current_tilt_angle>
     cd2:	90 91 18 03 	lds	r25, 0x0318	; 0x800318 <current_tilt_angle+0x1>
     cd6:	c8 0f       	add	r28, r24
     cd8:	d9 1f       	adc	r29, r25
     cda:	be 01       	movw	r22, r28
     cdc:	0d 2e       	mov	r0, r29
     cde:	00 0c       	add	r0, r0
     ce0:	88 0b       	sbc	r24, r24
     ce2:	99 0b       	sbc	r25, r25
     ce4:	29 d1       	rcall	.+594    	; 0xf38 <__floatsisf>
     ce6:	6b 01       	movw	r12, r22
     ce8:	7c 01       	movw	r14, r24
     cea:	20 e0       	ldi	r18, 0x00	; 0
     cec:	30 e0       	ldi	r19, 0x00	; 0
     cee:	46 e9       	ldi	r20, 0x96	; 150
     cf0:	53 e4       	ldi	r21, 0x43	; 67
     cf2:	c9 d1       	rcall	.+914    	; 0x1086 <__gesf2>
     cf4:	18 16       	cp	r1, r24
     cf6:	1c f4       	brge	.+6      	; 0xcfe <adjust_tilt_angle+0x76>
     cf8:	8c e2       	ldi	r24, 0x2C	; 44
     cfa:	91 e0       	ldi	r25, 0x01	; 1
     cfc:	10 c0       	rjmp	.+32     	; 0xd1e <adjust_tilt_angle+0x96>
     cfe:	20 e0       	ldi	r18, 0x00	; 0
     d00:	30 e0       	ldi	r19, 0x00	; 0
     d02:	4a e8       	ldi	r20, 0x8A	; 138
     d04:	52 e4       	ldi	r21, 0x42	; 66
     d06:	c7 01       	movw	r24, r14
     d08:	b6 01       	movw	r22, r12
     d0a:	df d0       	rcall	.+446    	; 0xeca <__cmpsf2>
     d0c:	87 fd       	sbrc	r24, 7
     d0e:	05 c0       	rjmp	.+10     	; 0xd1a <adjust_tilt_angle+0x92>
     d10:	d0 93 18 03 	sts	0x0318, r29	; 0x800318 <current_tilt_angle+0x1>
     d14:	c0 93 17 03 	sts	0x0317, r28	; 0x800317 <current_tilt_angle>
     d18:	06 c0       	rjmp	.+12     	; 0xd26 <adjust_tilt_angle+0x9e>
     d1a:	85 e4       	ldi	r24, 0x45	; 69
     d1c:	90 e0       	ldi	r25, 0x00	; 0
     d1e:	90 93 18 03 	sts	0x0318, r25	; 0x800318 <current_tilt_angle+0x1>
     d22:	80 93 17 03 	sts	0x0317, r24	; 0x800317 <current_tilt_angle>
     d26:	80 91 17 03 	lds	r24, 0x0317	; 0x800317 <current_tilt_angle>
     d2a:	90 91 18 03 	lds	r25, 0x0318	; 0x800318 <current_tilt_angle+0x1>
     d2e:	90 93 9b 00 	sts	0x009B, r25	; 0x80009b <__TEXT_REGION_LENGTH__+0x70009b>
     d32:	80 93 9a 00 	sts	0x009A, r24	; 0x80009a <__TEXT_REGION_LENGTH__+0x70009a>
     d36:	df 91       	pop	r29
     d38:	cf 91       	pop	r28
     d3a:	ff 90       	pop	r15
     d3c:	ef 90       	pop	r14
     d3e:	df 90       	pop	r13
     d40:	cf 90       	pop	r12
     d42:	08 95       	ret

00000d44 <uart_init>:
     d44:	83 30       	cpi	r24, 0x03	; 3
     d46:	30 f4       	brcc	.+12     	; 0xd54 <uart_init+0x10>
     d48:	e8 2f       	mov	r30, r24
     d4a:	f0 e0       	ldi	r31, 0x00	; 0
     d4c:	ef 5f       	subi	r30, 0xFF	; 255
     d4e:	fd 4f       	sbci	r31, 0xFD	; 253
     d50:	80 81       	ld	r24, Z
     d52:	02 c0       	rjmp	.+4      	; 0xd58 <uart_init+0x14>
     d54:	87 e6       	ldi	r24, 0x67	; 103
     d56:	90 e0       	ldi	r25, 0x00	; 0
     d58:	66 23       	and	r22, r22
     d5a:	19 f0       	breq	.+6      	; 0xd62 <uart_init+0x1e>
     d5c:	61 30       	cpi	r22, 0x01	; 1
     d5e:	89 f0       	breq	.+34     	; 0xd82 <uart_init+0x3e>
     d60:	08 95       	ret
     d62:	10 92 cd 00 	sts	0x00CD, r1	; 0x8000cd <__TEXT_REGION_LENGTH__+0x7000cd>
     d66:	80 93 cc 00 	sts	0x00CC, r24	; 0x8000cc <__TEXT_REGION_LENGTH__+0x7000cc>
     d6a:	82 e0       	ldi	r24, 0x02	; 2
     d6c:	80 93 c8 00 	sts	0x00C8, r24	; 0x8000c8 <__TEXT_REGION_LENGTH__+0x7000c8>
     d70:	88 e9       	ldi	r24, 0x98	; 152
     d72:	80 93 c9 00 	sts	0x00C9, r24	; 0x8000c9 <__TEXT_REGION_LENGTH__+0x7000c9>
     d76:	86 e0       	ldi	r24, 0x06	; 6
     d78:	80 93 ca 00 	sts	0x00CA, r24	; 0x8000ca <__TEXT_REGION_LENGTH__+0x7000ca>
     d7c:	10 92 50 02 	sts	0x0250, r1	; 0x800250 <uart_buffer_index_1>
     d80:	08 95       	ret
     d82:	10 92 2f 02 	sts	0x022F, r1	; 0x80022f <uart_buffer_index_2>
     d86:	10 92 d5 00 	sts	0x00D5, r1	; 0x8000d5 <__TEXT_REGION_LENGTH__+0x7000d5>
     d8a:	80 93 d4 00 	sts	0x00D4, r24	; 0x8000d4 <__TEXT_REGION_LENGTH__+0x7000d4>
     d8e:	82 e0       	ldi	r24, 0x02	; 2
     d90:	80 93 d0 00 	sts	0x00D0, r24	; 0x8000d0 <__TEXT_REGION_LENGTH__+0x7000d0>
     d94:	88 e9       	ldi	r24, 0x98	; 152
     d96:	80 93 d1 00 	sts	0x00D1, r24	; 0x8000d1 <__TEXT_REGION_LENGTH__+0x7000d1>
     d9a:	86 e0       	ldi	r24, 0x06	; 6
     d9c:	80 93 d2 00 	sts	0x00D2, r24	; 0x8000d2 <__TEXT_REGION_LENGTH__+0x7000d2>
     da0:	08 95       	ret

00000da2 <uart_putchar>:
     da2:	66 23       	and	r22, r22
     da4:	19 f0       	breq	.+6      	; 0xdac <uart_putchar+0xa>
     da6:	61 30       	cpi	r22, 0x01	; 1
     da8:	41 f0       	breq	.+16     	; 0xdba <uart_putchar+0x18>
     daa:	08 95       	ret
     dac:	90 91 c8 00 	lds	r25, 0x00C8	; 0x8000c8 <__TEXT_REGION_LENGTH__+0x7000c8>
     db0:	95 ff       	sbrs	r25, 5
     db2:	fc cf       	rjmp	.-8      	; 0xdac <uart_putchar+0xa>
     db4:	80 93 ce 00 	sts	0x00CE, r24	; 0x8000ce <__TEXT_REGION_LENGTH__+0x7000ce>
     db8:	08 95       	ret
     dba:	90 91 d0 00 	lds	r25, 0x00D0	; 0x8000d0 <__TEXT_REGION_LENGTH__+0x7000d0>
     dbe:	95 ff       	sbrs	r25, 5
     dc0:	fc cf       	rjmp	.-8      	; 0xdba <uart_putchar+0x18>
     dc2:	80 93 d6 00 	sts	0x00D6, r24	; 0x8000d6 <__TEXT_REGION_LENGTH__+0x7000d6>
     dc6:	08 95       	ret

00000dc8 <uart_get_byte>:
     dc8:	66 23       	and	r22, r22
     dca:	19 f0       	breq	.+6      	; 0xdd2 <uart_get_byte+0xa>
     dcc:	61 30       	cpi	r22, 0x01	; 1
     dce:	41 f0       	breq	.+16     	; 0xde0 <uart_get_byte+0x18>
     dd0:	0f c0       	rjmp	.+30     	; 0xdf0 <uart_get_byte+0x28>
     dd2:	80 32       	cpi	r24, 0x20	; 32
     dd4:	91 05       	cpc	r25, r1
     dd6:	64 f4       	brge	.+24     	; 0xdf0 <uart_get_byte+0x28>
     dd8:	fc 01       	movw	r30, r24
     dda:	ef 5a       	subi	r30, 0xAF	; 175
     ddc:	fd 4f       	sbci	r31, 0xFD	; 253
     dde:	06 c0       	rjmp	.+12     	; 0xdec <uart_get_byte+0x24>
     de0:	80 32       	cpi	r24, 0x20	; 32
     de2:	91 05       	cpc	r25, r1
     de4:	2c f4       	brge	.+10     	; 0xdf0 <uart_get_byte+0x28>
     de6:	fc 01       	movw	r30, r24
     de8:	e0 5d       	subi	r30, 0xD0	; 208
     dea:	fd 4f       	sbci	r31, 0xFD	; 253
     dec:	80 81       	ld	r24, Z
     dee:	08 95       	ret
     df0:	80 e0       	ldi	r24, 0x00	; 0
     df2:	08 95       	ret

00000df4 <uart_bytes_received>:
     df4:	88 23       	and	r24, r24
     df6:	29 f0       	breq	.+10     	; 0xe02 <uart_bytes_received+0xe>
     df8:	81 30       	cpi	r24, 0x01	; 1
     dfa:	31 f4       	brne	.+12     	; 0xe08 <uart_bytes_received+0x14>
     dfc:	80 91 2f 02 	lds	r24, 0x022F	; 0x80022f <uart_buffer_index_2>
     e00:	08 95       	ret
     e02:	80 91 50 02 	lds	r24, 0x0250	; 0x800250 <uart_buffer_index_1>
     e06:	08 95       	ret
     e08:	80 e0       	ldi	r24, 0x00	; 0
     e0a:	08 95       	ret

00000e0c <uart_reset_receive>:
     e0c:	88 23       	and	r24, r24
     e0e:	19 f0       	breq	.+6      	; 0xe16 <uart_reset_receive+0xa>
     e10:	81 30       	cpi	r24, 0x01	; 1
     e12:	21 f0       	breq	.+8      	; 0xe1c <uart_reset_receive+0x10>
     e14:	08 95       	ret
     e16:	10 92 50 02 	sts	0x0250, r1	; 0x800250 <uart_buffer_index_1>
     e1a:	08 95       	ret
     e1c:	10 92 2f 02 	sts	0x022F, r1	; 0x80022f <uart_buffer_index_2>
     e20:	08 95       	ret

00000e22 <__vector_36>:
     e22:	1f 92       	push	r1
     e24:	0f 92       	push	r0
     e26:	0f b6       	in	r0, 0x3f	; 63
     e28:	0f 92       	push	r0
     e2a:	11 24       	eor	r1, r1
     e2c:	0b b6       	in	r0, 0x3b	; 59
     e2e:	0f 92       	push	r0
     e30:	8f 93       	push	r24
     e32:	9f 93       	push	r25
     e34:	ef 93       	push	r30
     e36:	ff 93       	push	r31
     e38:	80 91 c8 00 	lds	r24, 0x00C8	; 0x8000c8 <__TEXT_REGION_LENGTH__+0x7000c8>
     e3c:	87 ff       	sbrs	r24, 7
     e3e:	fc cf       	rjmp	.-8      	; 0xe38 <__vector_36+0x16>
     e40:	e0 91 50 02 	lds	r30, 0x0250	; 0x800250 <uart_buffer_index_1>
     e44:	f0 e0       	ldi	r31, 0x00	; 0
     e46:	80 91 ce 00 	lds	r24, 0x00CE	; 0x8000ce <__TEXT_REGION_LENGTH__+0x7000ce>
     e4a:	ef 5a       	subi	r30, 0xAF	; 175
     e4c:	fd 4f       	sbci	r31, 0xFD	; 253
     e4e:	80 83       	st	Z, r24
     e50:	80 91 50 02 	lds	r24, 0x0250	; 0x800250 <uart_buffer_index_1>
     e54:	90 e0       	ldi	r25, 0x00	; 0
     e56:	01 96       	adiw	r24, 0x01	; 1
     e58:	8f 71       	andi	r24, 0x1F	; 31
     e5a:	99 27       	eor	r25, r25
     e5c:	80 93 50 02 	sts	0x0250, r24	; 0x800250 <uart_buffer_index_1>
     e60:	ff 91       	pop	r31
     e62:	ef 91       	pop	r30
     e64:	9f 91       	pop	r25
     e66:	8f 91       	pop	r24
     e68:	0f 90       	pop	r0
     e6a:	0b be       	out	0x3b, r0	; 59
     e6c:	0f 90       	pop	r0
     e6e:	0f be       	out	0x3f, r0	; 63
     e70:	0f 90       	pop	r0
     e72:	1f 90       	pop	r1
     e74:	18 95       	reti

00000e76 <__vector_51>:
     e76:	1f 92       	push	r1
     e78:	0f 92       	push	r0
     e7a:	0f b6       	in	r0, 0x3f	; 63
     e7c:	0f 92       	push	r0
     e7e:	11 24       	eor	r1, r1
     e80:	0b b6       	in	r0, 0x3b	; 59
     e82:	0f 92       	push	r0
     e84:	8f 93       	push	r24
     e86:	9f 93       	push	r25
     e88:	ef 93       	push	r30
     e8a:	ff 93       	push	r31
     e8c:	80 91 d0 00 	lds	r24, 0x00D0	; 0x8000d0 <__TEXT_REGION_LENGTH__+0x7000d0>
     e90:	87 ff       	sbrs	r24, 7
     e92:	fc cf       	rjmp	.-8      	; 0xe8c <__vector_51+0x16>
     e94:	e0 91 2f 02 	lds	r30, 0x022F	; 0x80022f <uart_buffer_index_2>
     e98:	f0 e0       	ldi	r31, 0x00	; 0
     e9a:	80 91 d6 00 	lds	r24, 0x00D6	; 0x8000d6 <__TEXT_REGION_LENGTH__+0x7000d6>
     e9e:	e0 5d       	subi	r30, 0xD0	; 208
     ea0:	fd 4f       	sbci	r31, 0xFD	; 253
     ea2:	80 83       	st	Z, r24
     ea4:	80 91 2f 02 	lds	r24, 0x022F	; 0x80022f <uart_buffer_index_2>
     ea8:	90 e0       	ldi	r25, 0x00	; 0
     eaa:	01 96       	adiw	r24, 0x01	; 1
     eac:	8f 71       	andi	r24, 0x1F	; 31
     eae:	99 27       	eor	r25, r25
     eb0:	80 93 2f 02 	sts	0x022F, r24	; 0x80022f <uart_buffer_index_2>
     eb4:	ff 91       	pop	r31
     eb6:	ef 91       	pop	r30
     eb8:	9f 91       	pop	r25
     eba:	8f 91       	pop	r24
     ebc:	0f 90       	pop	r0
     ebe:	0b be       	out	0x3b, r0	; 59
     ec0:	0f 90       	pop	r0
     ec2:	0f be       	out	0x3f, r0	; 63
     ec4:	0f 90       	pop	r0
     ec6:	1f 90       	pop	r1
     ec8:	18 95       	reti

00000eca <__cmpsf2>:
     eca:	90 d0       	rcall	.+288    	; 0xfec <__fp_cmp>
     ecc:	08 f4       	brcc	.+2      	; 0xed0 <__cmpsf2+0x6>
     ece:	81 e0       	ldi	r24, 0x01	; 1
     ed0:	08 95       	ret

00000ed2 <__fixsfsi>:
     ed2:	04 d0       	rcall	.+8      	; 0xedc <__fixunssfsi>
     ed4:	68 94       	set
     ed6:	b1 11       	cpse	r27, r1
     ed8:	d0 c0       	rjmp	.+416    	; 0x107a <__fp_szero>
     eda:	08 95       	ret

00000edc <__fixunssfsi>:
     edc:	b3 d0       	rcall	.+358    	; 0x1044 <__fp_splitA>
     ede:	88 f0       	brcs	.+34     	; 0xf02 <__fixunssfsi+0x26>
     ee0:	9f 57       	subi	r25, 0x7F	; 127
     ee2:	90 f0       	brcs	.+36     	; 0xf08 <__fixunssfsi+0x2c>
     ee4:	b9 2f       	mov	r27, r25
     ee6:	99 27       	eor	r25, r25
     ee8:	b7 51       	subi	r27, 0x17	; 23
     eea:	a0 f0       	brcs	.+40     	; 0xf14 <__fixunssfsi+0x38>
     eec:	d1 f0       	breq	.+52     	; 0xf22 <__fixunssfsi+0x46>
     eee:	66 0f       	add	r22, r22
     ef0:	77 1f       	adc	r23, r23
     ef2:	88 1f       	adc	r24, r24
     ef4:	99 1f       	adc	r25, r25
     ef6:	1a f0       	brmi	.+6      	; 0xefe <__fixunssfsi+0x22>
     ef8:	ba 95       	dec	r27
     efa:	c9 f7       	brne	.-14     	; 0xeee <__fixunssfsi+0x12>
     efc:	12 c0       	rjmp	.+36     	; 0xf22 <__fixunssfsi+0x46>
     efe:	b1 30       	cpi	r27, 0x01	; 1
     f00:	81 f0       	breq	.+32     	; 0xf22 <__fixunssfsi+0x46>
     f02:	ba d0       	rcall	.+372    	; 0x1078 <__fp_zero>
     f04:	b1 e0       	ldi	r27, 0x01	; 1
     f06:	08 95       	ret
     f08:	b7 c0       	rjmp	.+366    	; 0x1078 <__fp_zero>
     f0a:	67 2f       	mov	r22, r23
     f0c:	78 2f       	mov	r23, r24
     f0e:	88 27       	eor	r24, r24
     f10:	b8 5f       	subi	r27, 0xF8	; 248
     f12:	39 f0       	breq	.+14     	; 0xf22 <__fixunssfsi+0x46>
     f14:	b9 3f       	cpi	r27, 0xF9	; 249
     f16:	cc f3       	brlt	.-14     	; 0xf0a <__fixunssfsi+0x2e>
     f18:	86 95       	lsr	r24
     f1a:	77 95       	ror	r23
     f1c:	67 95       	ror	r22
     f1e:	b3 95       	inc	r27
     f20:	d9 f7       	brne	.-10     	; 0xf18 <__fixunssfsi+0x3c>
     f22:	3e f4       	brtc	.+14     	; 0xf32 <__fixunssfsi+0x56>
     f24:	90 95       	com	r25
     f26:	80 95       	com	r24
     f28:	70 95       	com	r23
     f2a:	61 95       	neg	r22
     f2c:	7f 4f       	sbci	r23, 0xFF	; 255
     f2e:	8f 4f       	sbci	r24, 0xFF	; 255
     f30:	9f 4f       	sbci	r25, 0xFF	; 255
     f32:	08 95       	ret

00000f34 <__floatunsisf>:
     f34:	e8 94       	clt
     f36:	09 c0       	rjmp	.+18     	; 0xf4a <__floatsisf+0x12>

00000f38 <__floatsisf>:
     f38:	97 fb       	bst	r25, 7
     f3a:	3e f4       	brtc	.+14     	; 0xf4a <__floatsisf+0x12>
     f3c:	90 95       	com	r25
     f3e:	80 95       	com	r24
     f40:	70 95       	com	r23
     f42:	61 95       	neg	r22
     f44:	7f 4f       	sbci	r23, 0xFF	; 255
     f46:	8f 4f       	sbci	r24, 0xFF	; 255
     f48:	9f 4f       	sbci	r25, 0xFF	; 255
     f4a:	99 23       	and	r25, r25
     f4c:	a9 f0       	breq	.+42     	; 0xf78 <__floatsisf+0x40>
     f4e:	f9 2f       	mov	r31, r25
     f50:	96 e9       	ldi	r25, 0x96	; 150
     f52:	bb 27       	eor	r27, r27
     f54:	93 95       	inc	r25
     f56:	f6 95       	lsr	r31
     f58:	87 95       	ror	r24
     f5a:	77 95       	ror	r23
     f5c:	67 95       	ror	r22
     f5e:	b7 95       	ror	r27
     f60:	f1 11       	cpse	r31, r1
     f62:	f8 cf       	rjmp	.-16     	; 0xf54 <__floatsisf+0x1c>
     f64:	fa f4       	brpl	.+62     	; 0xfa4 <__floatsisf+0x6c>
     f66:	bb 0f       	add	r27, r27
     f68:	11 f4       	brne	.+4      	; 0xf6e <__floatsisf+0x36>
     f6a:	60 ff       	sbrs	r22, 0
     f6c:	1b c0       	rjmp	.+54     	; 0xfa4 <__floatsisf+0x6c>
     f6e:	6f 5f       	subi	r22, 0xFF	; 255
     f70:	7f 4f       	sbci	r23, 0xFF	; 255
     f72:	8f 4f       	sbci	r24, 0xFF	; 255
     f74:	9f 4f       	sbci	r25, 0xFF	; 255
     f76:	16 c0       	rjmp	.+44     	; 0xfa4 <__floatsisf+0x6c>
     f78:	88 23       	and	r24, r24
     f7a:	11 f0       	breq	.+4      	; 0xf80 <__floatsisf+0x48>
     f7c:	96 e9       	ldi	r25, 0x96	; 150
     f7e:	11 c0       	rjmp	.+34     	; 0xfa2 <__floatsisf+0x6a>
     f80:	77 23       	and	r23, r23
     f82:	21 f0       	breq	.+8      	; 0xf8c <__floatsisf+0x54>
     f84:	9e e8       	ldi	r25, 0x8E	; 142
     f86:	87 2f       	mov	r24, r23
     f88:	76 2f       	mov	r23, r22
     f8a:	05 c0       	rjmp	.+10     	; 0xf96 <__floatsisf+0x5e>
     f8c:	66 23       	and	r22, r22
     f8e:	71 f0       	breq	.+28     	; 0xfac <__floatsisf+0x74>
     f90:	96 e8       	ldi	r25, 0x86	; 134
     f92:	86 2f       	mov	r24, r22
     f94:	70 e0       	ldi	r23, 0x00	; 0
     f96:	60 e0       	ldi	r22, 0x00	; 0
     f98:	2a f0       	brmi	.+10     	; 0xfa4 <__floatsisf+0x6c>
     f9a:	9a 95       	dec	r25
     f9c:	66 0f       	add	r22, r22
     f9e:	77 1f       	adc	r23, r23
     fa0:	88 1f       	adc	r24, r24
     fa2:	da f7       	brpl	.-10     	; 0xf9a <__floatsisf+0x62>
     fa4:	88 0f       	add	r24, r24
     fa6:	96 95       	lsr	r25
     fa8:	87 95       	ror	r24
     faa:	97 f9       	bld	r25, 7
     fac:	08 95       	ret

00000fae <fmin>:
     fae:	99 0f       	add	r25, r25
     fb0:	bb 0b       	sbc	r27, r27
     fb2:	55 0f       	add	r21, r21
     fb4:	aa 0b       	sbc	r26, r26
     fb6:	e0 e8       	ldi	r30, 0x80	; 128
     fb8:	fe ef       	ldi	r31, 0xFE	; 254
     fba:	16 16       	cp	r1, r22
     fbc:	17 06       	cpc	r1, r23
     fbe:	e8 07       	cpc	r30, r24
     fc0:	f9 07       	cpc	r31, r25
     fc2:	70 f0       	brcs	.+28     	; 0xfe0 <fmin+0x32>
     fc4:	12 16       	cp	r1, r18
     fc6:	13 06       	cpc	r1, r19
     fc8:	e4 07       	cpc	r30, r20
     fca:	f5 07       	cpc	r31, r21
     fcc:	60 f0       	brcs	.+24     	; 0xfe6 <fmin+0x38>
     fce:	ba 17       	cp	r27, r26
     fd0:	54 f0       	brlt	.+20     	; 0xfe6 <fmin+0x38>
     fd2:	31 f4       	brne	.+12     	; 0xfe0 <fmin+0x32>
     fd4:	26 17       	cp	r18, r22
     fd6:	37 07       	cpc	r19, r23
     fd8:	48 07       	cpc	r20, r24
     fda:	59 07       	cpc	r21, r25
     fdc:	a7 95       	ror	r26
     fde:	1b f4       	brvc	.+6      	; 0xfe6 <fmin+0x38>
     fe0:	b9 01       	movw	r22, r18
     fe2:	ca 01       	movw	r24, r20
     fe4:	ba 2f       	mov	r27, r26
     fe6:	b6 95       	lsr	r27
     fe8:	97 95       	ror	r25
     fea:	08 95       	ret

00000fec <__fp_cmp>:
     fec:	99 0f       	add	r25, r25
     fee:	00 08       	sbc	r0, r0
     ff0:	55 0f       	add	r21, r21
     ff2:	aa 0b       	sbc	r26, r26
     ff4:	e0 e8       	ldi	r30, 0x80	; 128
     ff6:	fe ef       	ldi	r31, 0xFE	; 254
     ff8:	16 16       	cp	r1, r22
     ffa:	17 06       	cpc	r1, r23
     ffc:	e8 07       	cpc	r30, r24
     ffe:	f9 07       	cpc	r31, r25
    1000:	c0 f0       	brcs	.+48     	; 0x1032 <__fp_cmp+0x46>
    1002:	12 16       	cp	r1, r18
    1004:	13 06       	cpc	r1, r19
    1006:	e4 07       	cpc	r30, r20
    1008:	f5 07       	cpc	r31, r21
    100a:	98 f0       	brcs	.+38     	; 0x1032 <__fp_cmp+0x46>
    100c:	62 1b       	sub	r22, r18
    100e:	73 0b       	sbc	r23, r19
    1010:	84 0b       	sbc	r24, r20
    1012:	95 0b       	sbc	r25, r21
    1014:	39 f4       	brne	.+14     	; 0x1024 <__fp_cmp+0x38>
    1016:	0a 26       	eor	r0, r26
    1018:	61 f0       	breq	.+24     	; 0x1032 <__fp_cmp+0x46>
    101a:	23 2b       	or	r18, r19
    101c:	24 2b       	or	r18, r20
    101e:	25 2b       	or	r18, r21
    1020:	21 f4       	brne	.+8      	; 0x102a <__fp_cmp+0x3e>
    1022:	08 95       	ret
    1024:	0a 26       	eor	r0, r26
    1026:	09 f4       	brne	.+2      	; 0x102a <__fp_cmp+0x3e>
    1028:	a1 40       	sbci	r26, 0x01	; 1
    102a:	a6 95       	lsr	r26
    102c:	8f ef       	ldi	r24, 0xFF	; 255
    102e:	81 1d       	adc	r24, r1
    1030:	81 1d       	adc	r24, r1
    1032:	08 95       	ret

00001034 <__fp_split3>:
    1034:	57 fd       	sbrc	r21, 7
    1036:	90 58       	subi	r25, 0x80	; 128
    1038:	44 0f       	add	r20, r20
    103a:	55 1f       	adc	r21, r21
    103c:	59 f0       	breq	.+22     	; 0x1054 <__fp_splitA+0x10>
    103e:	5f 3f       	cpi	r21, 0xFF	; 255
    1040:	71 f0       	breq	.+28     	; 0x105e <__fp_splitA+0x1a>
    1042:	47 95       	ror	r20

00001044 <__fp_splitA>:
    1044:	88 0f       	add	r24, r24
    1046:	97 fb       	bst	r25, 7
    1048:	99 1f       	adc	r25, r25
    104a:	61 f0       	breq	.+24     	; 0x1064 <__fp_splitA+0x20>
    104c:	9f 3f       	cpi	r25, 0xFF	; 255
    104e:	79 f0       	breq	.+30     	; 0x106e <__fp_splitA+0x2a>
    1050:	87 95       	ror	r24
    1052:	08 95       	ret
    1054:	12 16       	cp	r1, r18
    1056:	13 06       	cpc	r1, r19
    1058:	14 06       	cpc	r1, r20
    105a:	55 1f       	adc	r21, r21
    105c:	f2 cf       	rjmp	.-28     	; 0x1042 <__fp_split3+0xe>
    105e:	46 95       	lsr	r20
    1060:	f1 df       	rcall	.-30     	; 0x1044 <__fp_splitA>
    1062:	08 c0       	rjmp	.+16     	; 0x1074 <__fp_splitA+0x30>
    1064:	16 16       	cp	r1, r22
    1066:	17 06       	cpc	r1, r23
    1068:	18 06       	cpc	r1, r24
    106a:	99 1f       	adc	r25, r25
    106c:	f1 cf       	rjmp	.-30     	; 0x1050 <__fp_splitA+0xc>
    106e:	86 95       	lsr	r24
    1070:	71 05       	cpc	r23, r1
    1072:	61 05       	cpc	r22, r1
    1074:	08 94       	sec
    1076:	08 95       	ret

00001078 <__fp_zero>:
    1078:	e8 94       	clt

0000107a <__fp_szero>:
    107a:	bb 27       	eor	r27, r27
    107c:	66 27       	eor	r22, r22
    107e:	77 27       	eor	r23, r23
    1080:	cb 01       	movw	r24, r22
    1082:	97 f9       	bld	r25, 7
    1084:	08 95       	ret

00001086 <__gesf2>:
    1086:	b2 df       	rcall	.-156    	; 0xfec <__fp_cmp>
    1088:	08 f4       	brcc	.+2      	; 0x108c <__gesf2+0x6>
    108a:	8f ef       	ldi	r24, 0xFF	; 255
    108c:	08 95       	ret

0000108e <__mulsf3>:
    108e:	0b d0       	rcall	.+22     	; 0x10a6 <__mulsf3x>
    1090:	78 c0       	rjmp	.+240    	; 0x1182 <__fp_round>
    1092:	69 d0       	rcall	.+210    	; 0x1166 <__fp_pscA>
    1094:	28 f0       	brcs	.+10     	; 0x10a0 <__mulsf3+0x12>
    1096:	6e d0       	rcall	.+220    	; 0x1174 <__fp_pscB>
    1098:	18 f0       	brcs	.+6      	; 0x10a0 <__mulsf3+0x12>
    109a:	95 23       	and	r25, r21
    109c:	09 f0       	breq	.+2      	; 0x10a0 <__mulsf3+0x12>
    109e:	5a c0       	rjmp	.+180    	; 0x1154 <__fp_inf>
    10a0:	5f c0       	rjmp	.+190    	; 0x1160 <__fp_nan>
    10a2:	11 24       	eor	r1, r1
    10a4:	ea cf       	rjmp	.-44     	; 0x107a <__fp_szero>

000010a6 <__mulsf3x>:
    10a6:	c6 df       	rcall	.-116    	; 0x1034 <__fp_split3>
    10a8:	a0 f3       	brcs	.-24     	; 0x1092 <__mulsf3+0x4>

000010aa <__mulsf3_pse>:
    10aa:	95 9f       	mul	r25, r21
    10ac:	d1 f3       	breq	.-12     	; 0x10a2 <__mulsf3+0x14>
    10ae:	95 0f       	add	r25, r21
    10b0:	50 e0       	ldi	r21, 0x00	; 0
    10b2:	55 1f       	adc	r21, r21
    10b4:	62 9f       	mul	r22, r18
    10b6:	f0 01       	movw	r30, r0
    10b8:	72 9f       	mul	r23, r18
    10ba:	bb 27       	eor	r27, r27
    10bc:	f0 0d       	add	r31, r0
    10be:	b1 1d       	adc	r27, r1
    10c0:	63 9f       	mul	r22, r19
    10c2:	aa 27       	eor	r26, r26
    10c4:	f0 0d       	add	r31, r0
    10c6:	b1 1d       	adc	r27, r1
    10c8:	aa 1f       	adc	r26, r26
    10ca:	64 9f       	mul	r22, r20
    10cc:	66 27       	eor	r22, r22
    10ce:	b0 0d       	add	r27, r0
    10d0:	a1 1d       	adc	r26, r1
    10d2:	66 1f       	adc	r22, r22
    10d4:	82 9f       	mul	r24, r18
    10d6:	22 27       	eor	r18, r18
    10d8:	b0 0d       	add	r27, r0
    10da:	a1 1d       	adc	r26, r1
    10dc:	62 1f       	adc	r22, r18
    10de:	73 9f       	mul	r23, r19
    10e0:	b0 0d       	add	r27, r0
    10e2:	a1 1d       	adc	r26, r1
    10e4:	62 1f       	adc	r22, r18
    10e6:	83 9f       	mul	r24, r19
    10e8:	a0 0d       	add	r26, r0
    10ea:	61 1d       	adc	r22, r1
    10ec:	22 1f       	adc	r18, r18
    10ee:	74 9f       	mul	r23, r20
    10f0:	33 27       	eor	r19, r19
    10f2:	a0 0d       	add	r26, r0
    10f4:	61 1d       	adc	r22, r1
    10f6:	23 1f       	adc	r18, r19
    10f8:	84 9f       	mul	r24, r20
    10fa:	60 0d       	add	r22, r0
    10fc:	21 1d       	adc	r18, r1
    10fe:	82 2f       	mov	r24, r18
    1100:	76 2f       	mov	r23, r22
    1102:	6a 2f       	mov	r22, r26
    1104:	11 24       	eor	r1, r1
    1106:	9f 57       	subi	r25, 0x7F	; 127
    1108:	50 40       	sbci	r21, 0x00	; 0
    110a:	8a f0       	brmi	.+34     	; 0x112e <__mulsf3_pse+0x84>
    110c:	e1 f0       	breq	.+56     	; 0x1146 <__mulsf3_pse+0x9c>
    110e:	88 23       	and	r24, r24
    1110:	4a f0       	brmi	.+18     	; 0x1124 <__mulsf3_pse+0x7a>
    1112:	ee 0f       	add	r30, r30
    1114:	ff 1f       	adc	r31, r31
    1116:	bb 1f       	adc	r27, r27
    1118:	66 1f       	adc	r22, r22
    111a:	77 1f       	adc	r23, r23
    111c:	88 1f       	adc	r24, r24
    111e:	91 50       	subi	r25, 0x01	; 1
    1120:	50 40       	sbci	r21, 0x00	; 0
    1122:	a9 f7       	brne	.-22     	; 0x110e <__mulsf3_pse+0x64>
    1124:	9e 3f       	cpi	r25, 0xFE	; 254
    1126:	51 05       	cpc	r21, r1
    1128:	70 f0       	brcs	.+28     	; 0x1146 <__mulsf3_pse+0x9c>
    112a:	14 c0       	rjmp	.+40     	; 0x1154 <__fp_inf>
    112c:	a6 cf       	rjmp	.-180    	; 0x107a <__fp_szero>
    112e:	5f 3f       	cpi	r21, 0xFF	; 255
    1130:	ec f3       	brlt	.-6      	; 0x112c <__mulsf3_pse+0x82>
    1132:	98 3e       	cpi	r25, 0xE8	; 232
    1134:	dc f3       	brlt	.-10     	; 0x112c <__mulsf3_pse+0x82>
    1136:	86 95       	lsr	r24
    1138:	77 95       	ror	r23
    113a:	67 95       	ror	r22
    113c:	b7 95       	ror	r27
    113e:	f7 95       	ror	r31
    1140:	e7 95       	ror	r30
    1142:	9f 5f       	subi	r25, 0xFF	; 255
    1144:	c1 f7       	brne	.-16     	; 0x1136 <__mulsf3_pse+0x8c>
    1146:	fe 2b       	or	r31, r30
    1148:	88 0f       	add	r24, r24
    114a:	91 1d       	adc	r25, r1
    114c:	96 95       	lsr	r25
    114e:	87 95       	ror	r24
    1150:	97 f9       	bld	r25, 7
    1152:	08 95       	ret

00001154 <__fp_inf>:
    1154:	97 f9       	bld	r25, 7
    1156:	9f 67       	ori	r25, 0x7F	; 127
    1158:	80 e8       	ldi	r24, 0x80	; 128
    115a:	70 e0       	ldi	r23, 0x00	; 0
    115c:	60 e0       	ldi	r22, 0x00	; 0
    115e:	08 95       	ret

00001160 <__fp_nan>:
    1160:	9f ef       	ldi	r25, 0xFF	; 255
    1162:	80 ec       	ldi	r24, 0xC0	; 192
    1164:	08 95       	ret

00001166 <__fp_pscA>:
    1166:	00 24       	eor	r0, r0
    1168:	0a 94       	dec	r0
    116a:	16 16       	cp	r1, r22
    116c:	17 06       	cpc	r1, r23
    116e:	18 06       	cpc	r1, r24
    1170:	09 06       	cpc	r0, r25
    1172:	08 95       	ret

00001174 <__fp_pscB>:
    1174:	00 24       	eor	r0, r0
    1176:	0a 94       	dec	r0
    1178:	12 16       	cp	r1, r18
    117a:	13 06       	cpc	r1, r19
    117c:	14 06       	cpc	r1, r20
    117e:	05 06       	cpc	r0, r21
    1180:	08 95       	ret

00001182 <__fp_round>:
    1182:	09 2e       	mov	r0, r25
    1184:	03 94       	inc	r0
    1186:	00 0c       	add	r0, r0
    1188:	11 f4       	brne	.+4      	; 0x118e <__fp_round+0xc>
    118a:	88 23       	and	r24, r24
    118c:	52 f0       	brmi	.+20     	; 0x11a2 <__fp_round+0x20>
    118e:	bb 0f       	add	r27, r27
    1190:	40 f4       	brcc	.+16     	; 0x11a2 <__fp_round+0x20>
    1192:	bf 2b       	or	r27, r31
    1194:	11 f4       	brne	.+4      	; 0x119a <__fp_round+0x18>
    1196:	60 ff       	sbrs	r22, 0
    1198:	04 c0       	rjmp	.+8      	; 0x11a2 <__fp_round+0x20>
    119a:	6f 5f       	subi	r22, 0xFF	; 255
    119c:	7f 4f       	sbci	r23, 0xFF	; 255
    119e:	8f 4f       	sbci	r24, 0xFF	; 255
    11a0:	9f 4f       	sbci	r25, 0xFF	; 255
    11a2:	08 95       	ret

000011a4 <_exit>:
    11a4:	f8 94       	cli

000011a6 <__stop_program>:
    11a6:	ff cf       	rjmp	.-2      	; 0x11a6 <__stop_program>
